(dp1
S'__module_docstring'
p2
S'This module contains a few classes that are only available on Windows.\n'
p3
sS'Metafile'
p4
S'A  ** :ref:`wx.msw.Metafile` **   represents the MS Windows metafile object, so metafile operations have no effect in X.'
p5
sS'PyAxBaseWindow'
p6
S'A Window class for use with ActiveX controls.'
p7
sS'MetafileDC'
p8
VThis is a type of device context that allows a metafile object to be created (Windows only), and has most of the characteristics of a normal  ** :ref:`wx.DC` ** .
p9
s.