Certificate:
    Data:
        Version: 3 (0x2)
        Serial Number: 268435667 (0x100000d3)
    Signature Algorithm: sha256WithRSAEncryption
        Issuer: C=DE, ST=Hessen, O=privacyidea, CN=CA001
        Validity
            Not Before: Jan  8 12:11:06 2018 GMT
            Not After : Jan  8 12:11:06 2019 GMT
        Subject: CN=Steve Test/emailAddress=steve@openssl.org
        Subject Public Key Info:
            Public Key Algorithm: rsaEncryption
                Public-Key: (2048 bit)
                Modulus:
                    00:d2:81:89:20:51:48:0f:73:f4:11:32:24:d5:1f:
                    1c:fd:5c:f5:b6:e6:c5:f0:52:81:dc:d2:af:66:4a:
                    7c:93:31:61:5c:af:d1:6d:06:70:03:60:7c:72:0c:
                    88:dd:49:cd:9e:02:6c:d2:5a:d7:53:0f:f3:da:be:
                    69:64:b5:0f:0c:00:e3:b3:50:47:a3:b3:9b:ba:13:
                    50:d6:58:5a:4b:ab:39:e0:11:ca:0a:27:67:03:78:
                    22:66:6d:92:1e:1b:5c:49:ae:e6:6b:d1:8e:3b:9d:
                    06:d3:c6:ac:4d:53:43:10:ab:e8:96:c1:87:82:97:
                    99:8f:20:d3:99:12:37:31:84:e1:8a:ff:29:03:5f:
                    22:90:3e:7f:9b:e0:20:c1:ad:dc:ae:4c:39:1a:31:
                    96:17:02:8c:b2:d9:b4:0d:20:12:9b:7d:86:54:fd:
                    33:fd:c1:2a:62:46:f8:60:96:cf:6e:01:6f:22:df:
                    13:47:e7:97:ec:05:72:23:a3:62:f8:fa:ef:ac:9c:
                    72:f0:37:cb:2f:37:cf:90:a8:27:51:86:c6:d7:78:
                    08:8f:7e:25:a2:15:70:a2:fb:1c:b6:15:5e:a0:97:
                    8b:81:4c:09:28:8a:27:3b:94:bc:71:db:5b:71:37:
                    9a:2b:16:e0:6f:b5:c9:f5:4b:4f:20:ba:65:cf:af:
                    ad:ad
                Exponent: 65537 (0x10001)
        X509v3 extensions:
            X509v3 Key Usage: 
                Digital Signature, Key Encipherment
            X509v3 Basic Constraints: 
                CA:FALSE
            Netscape Cert Type: 
                SSL Server
            Netscape Comment: 
                OpenSSL Generated Server Certificate
            X509v3 Subject Key Identifier: 
                E5:25:6D:3E:AF:0D:DD:3F:4C:F2:45:19:39:D5:14:DB:7E:9C:C0:AD
            X509v3 Authority Key Identifier: 
                keyid:F4:A7:C0:CC:91:46:AF:64:F3:91:F2:27:F8:C8:B2:6F:8A:87:32:73
                DirName:/C=DE/ST=Hessen/O=privacyidea/CN=CA001
                serial:FB:C8:EB:AC:83:CD:12:07

            X509v3 Extended Key Usage: 
                TLS Web Server Authentication
    Signature Algorithm: sha256WithRSAEncryption
         78:20:e7:9b:a6:23:bc:43:f0:44:a0:8c:29:a3:a9:95:ab:b8:
         7c:fe:35:b9:19:56:24:c7:cc:08:a9:18:2f:06:b5:63:51:1a:
         3b:8c:b4:88:d2:52:6c:32:f5:08:bd:e4:61:d3:cc:f5:b4:15:
         e5:84:3d:94:50:32:9c:ac:d0:ba:98:fd:fa:ac:7c:fb:21:08:
         e6:98:63:1b:f5:b9:69:fa:dd:53:bb:bc:33:1b:6d:66:3f:7a:
         94:54:8d:d7:cc:e4:1e:f7:7b:bd:24:8b:bb:65:ed:c6:05:02:
         fd:9e:c6:a1:49:5d:0a:66:cc:08:00:5c:ab:6c:a7:7a:30:49:
         11:37:7a:a3:ef:1b:9f:1a:ec:94:71:23:c4:2a:1c:dc:c2:09:
         30:ff:ca:ec:0f:2f:bf:b8:59:f5:10:6a:5f:66:b4:d4:d7:4a:
         1e:a8:5d:3d:ba:d1:24:e7:f1:8e:8b:0f:56:90:ee:2b:a1:c4:
         ad:7b:2c:a1:fd:63:74:95:28:db:e4:21:37:a0:1e:8a:c6:50:
         57:43:c0:93:3c:45:ad:c1:f7:ce:4b:cc:e8:d0:89:a6:d1:d9:
         da:7c:9c:02:3e:13:de:68:da:33:d0:dc:57:30:50:18:75:94:
         b0:75:fc:11:83:1b:f3:ba:02:58:8b:05:c6:90:e6:20:b8:ea:
         1e:99:e4:a2
-----BEGIN CERTIFICATE-----
MIIECTCCAvGgAwIBAgIEEAAA0zANBgkqhkiG9w0BAQsFADBEMQswCQYDVQQGEwJE
RTEPMA0GA1UECAwGSGVzc2VuMRQwEgYDVQQKDAtwcml2YWN5aWRlYTEOMAwGA1UE
AwwFQ0EwMDEwHhcNMTgwMTA4MTIxMTA2WhcNMTkwMTA4MTIxMTA2WjA3MRMwEQYD
VQQDDApTdGV2ZSBUZXN0MSAwHgYJKoZIhvcNAQkBFhFzdGV2ZUBvcGVuc3NsLm9y
ZzCCASIwDQYJKoZIhvcNAQEBBQADggEPADCCAQoCggEBANKBiSBRSA9z9BEyJNUf
HP1c9bbmxfBSgdzSr2ZKfJMxYVyv0W0GcANgfHIMiN1JzZ4CbNJa11MP89q+aWS1
DwwA47NQR6Ozm7oTUNZYWkurOeARygonZwN4ImZtkh4bXEmu5mvRjjudBtPGrE1T
QxCr6JbBh4KXmY8g05kSNzGE4Yr/KQNfIpA+f5vgIMGt3K5MORoxlhcCjLLZtA0g
Ept9hlT9M/3BKmJG+GCWz24BbyLfE0fnl+wFciOjYvj676yccvA3yy83z5CoJ1GG
xtd4CI9+JaIVcKL7HLYVXqCXi4FMCSiKJzuUvHHbW3E3misW4G+1yfVLTyC6Zc+v
ra0CAwEAAaOCAQ4wggEKMAsGA1UdDwQEAwIFoDAJBgNVHRMEAjAAMBEGCWCGSAGG
+EIBAQQEAwIGQDAzBglghkgBhvhCAQ0EJhYkT3BlblNTTCBHZW5lcmF0ZWQgU2Vy
dmVyIENlcnRpZmljYXRlMB0GA1UdDgQWBBTlJW0+rw3dP0zyRRk51RTbfpzArTB0
BgNVHSMEbTBrgBT0p8DMkUavZPOR8if4yLJviocyc6FIpEYwRDELMAkGA1UEBhMC
REUxDzANBgNVBAgMBkhlc3NlbjEUMBIGA1UECgwLcHJpdmFjeWlkZWExDjAMBgNV
BAMMBUNBMDAxggkA+8jrrIPNEgcwEwYDVR0lBAwwCgYIKwYBBQUHAwEwDQYJKoZI
hvcNAQELBQADggEBAHgg55umI7xD8ESgjCmjqZWruHz+NbkZViTHzAipGC8GtWNR
GjuMtIjSUmwy9Qi95GHTzPW0FeWEPZRQMpys0LqY/fqsfPshCOaYYxv1uWn63VO7
vDMbbWY/epRUjdfM5B73e70ki7tl7cYFAv2exqFJXQpmzAgAXKtsp3owSRE3eqPv
G58a7JRxI8QqHNzCCTD/yuwPL7+4WfUQal9mtNTXSh6oXT260STn8Y6LD1aQ7iuh
xK17LKH9Y3SVKNvkITegHorGUFdDwJM8Ra3B985LzOjQiabR2dp8nAI+E95o2jPQ
3FcwUBh1lLB1/BGDG/O6AliLBcaQ5iC46h6Z5KI=
-----END CERTIFICATE-----
