Certificate:
    Data:
        Version: 3 (0x2)
        Serial Number: 268435684 (0x100000e4)
    Signature Algorithm: sha256WithRSAEncryption
        Issuer: C=DE, ST=Hessen, O=privacyidea, CN=CA001
        Validity
            Not Before: Sep  7 14:03:30 2017 GMT
            Not After : Sep  7 14:03:30 2018 GMT
        Subject: C=DE, ST=Hessen, O=privacyidea, CN=usercert
        Subject Public Key Info:
            Public Key Algorithm: rsaEncryption
                Public-Key: (2048 bit)
                Modulus:
                    00:dc:2f:d1:5f:29:97:d4:7c:c3:53:c8:30:bd:4b:
                    67:70:2c:24:6b:b8:5e:eb:21:7a:48:12:56:7c:81:
                    5c:48:75:b6:68:eb:f6:f2:98:4e:50:51:d1:7f:6c:
                    73:f3:0a:a7:ae:be:48:5e:e5:d6:e1:d9:2a:7c:32:
                    6e:4e:fd:08:f6:5a:54:49:23:73:c3:b9:07:18:d1:
                    ef:b3:ac:f8:8a:dc:94:96:a4:90:3a:8e:74:df:e6:
                    0d:37:1b:bd:5b:b7:25:1a:56:39:da:6f:91:aa:5e:
                    1c:74:f3:f9:7c:14:01:83:12:65:76:c7:bb:fe:36:
                    5b:95:e9:72:65:83:ed:3e:98:30:71:fa:87:dd:a3:
                    36:5a:30:03:2e:26:e0:61:d1:bf:02:3f:b6:06:1f:
                    4a:89:28:1c:5c:a2:ff:4e:be:94:e6:8c:e0:da:82:
                    f1:9d:29:32:48:30:73:b4:04:f6:42:1e:be:f7:e2:
                    32:32:27:3c:9d:89:2f:70:3e:85:9a:6f:5c:c5:09:
                    c0:8c:32:2f:72:22:c9:d2:95:1f:b6:ac:72:60:72:
                    b7:82:4d:6b:ce:5b:e3:00:d0:d2:2f:58:c6:e0:10:
                    e5:51:ca:4d:3b:2e:e6:7e:ab:84:d6:56:f1:93:35:
                    a0:93:64:26:81:75:2f:91:b5:16:06:38:0b:db:cc:
                    2d:07
                Exponent: 65537 (0x10001)
        X509v3 extensions:
            X509v3 Key Usage: 
                Digital Signature, Key Encipherment
            X509v3 Basic Constraints: 
                CA:FALSE
            Netscape Cert Type: 
                SSL Server
            Netscape Comment: 
                OpenSSL Generated Server Certificate
            X509v3 Subject Key Identifier: 
                FC:14:D1:F0:4B:8D:00:90:F2:F5:B8:71:9E:4E:97:C3:92:54:AD:0B
            X509v3 Authority Key Identifier: 
                keyid:F4:A7:C0:CC:91:46:AF:64:F3:91:F2:27:F8:C8:B2:6F:8A:87:32:73
                DirName:/C=DE/ST=Hessen/O=privacyidea/CN=CA001
                serial:FB:C8:EB:AC:83:CD:12:07

            X509v3 Extended Key Usage: 
                TLS Web Server Authentication
    Signature Algorithm: sha256WithRSAEncryption
         5a:a1:f1:9c:e6:dc:85:5b:10:38:41:96:f6:0f:a0:19:eb:7d:
         32:69:74:ef:bd:ef:ee:13:34:6f:3b:ee:ca:ba:ae:38:f5:76:
         80:95:90:ad:cb:7c:e8:68:3d:59:1d:f5:31:9e:d5:c0:1c:3b:
         76:49:25:88:6a:d3:ba:db:d4:a0:72:aa:44:cf:0c:63:a1:f1:
         fc:82:b6:ff:e9:ff:72:a9:87:a3:84:02:db:27:ad:60:9d:50:
         1e:27:30:44:e0:9a:38:c5:42:0c:42:18:13:6f:e9:dd:dd:4d:
         16:78:1f:38:0d:6d:36:53:2e:d9:6d:54:9b:ab:71:4d:1c:b8:
         1e:16:34:03:e4:79:1a:aa:46:f0:e8:10:5a:a8:b6:73:4f:74:
         75:6a:1a:48:b4:6d:42:d0:a9:a6:6a:4a:54:a7:d0:70:f9:40:
         f6:0f:d1:d3:6f:0d:3e:70:62:43:bb:b6:08:d6:6e:79:d8:bb:
         45:4d:73:0e:1e:0e:56:21:f3:b3:7a:18:46:83:f2:0d:19:89:
         6c:fc:27:1b:1a:92:db:06:65:72:e3:1a:09:6a:22:58:26:4b:
         b2:3a:f6:4f:0f:f0:68:b4:bc:c1:43:f9:5d:d6:19:3f:5f:0b:
         ee:f1:5a:7f:ba:fb:b3:7a:0c:a2:fc:4e:69:4b:54:70:03:2c:
         c4:81:7f:85
-----BEGIN CERTIFICATE-----
MIIEGTCCAwGgAwIBAgIEEAAA5DANBgkqhkiG9w0BAQsFADBEMQswCQYDVQQGEwJE
RTEPMA0GA1UECAwGSGVzc2VuMRQwEgYDVQQKDAtwcml2YWN5aWRlYTEOMAwGA1UE
AwwFQ0EwMDEwHhcNMTcwOTA3MTQwMzMwWhcNMTgwOTA3MTQwMzMwWjBHMQswCQYD
VQQGEwJERTEPMA0GA1UECAwGSGVzc2VuMRQwEgYDVQQKDAtwcml2YWN5aWRlYTER
MA8GA1UEAwwIdXNlcmNlcnQwggEiMA0GCSqGSIb3DQEBAQUAA4IBDwAwggEKAoIB
AQDcL9FfKZfUfMNTyDC9S2dwLCRruF7rIXpIElZ8gVxIdbZo6/bymE5QUdF/bHPz
Cqeuvkhe5dbh2Sp8Mm5O/Qj2WlRJI3PDuQcY0e+zrPiK3JSWpJA6jnTf5g03G71b
tyUaVjnab5GqXhx08/l8FAGDEmV2x7v+NluV6XJlg+0+mDBx+ofdozZaMAMuJuBh
0b8CP7YGH0qJKBxcov9OvpTmjODagvGdKTJIMHO0BPZCHr734jIyJzydiS9wPoWa
b1zFCcCMMi9yIsnSlR+2rHJgcreCTWvOW+MA0NIvWMbgEOVRyk07LuZ+q4TWVvGT
NaCTZCaBdS+RtRYGOAvbzC0HAgMBAAGjggEOMIIBCjALBgNVHQ8EBAMCBaAwCQYD
VR0TBAIwADARBglghkgBhvhCAQEEBAMCBkAwMwYJYIZIAYb4QgENBCYWJE9wZW5T
U0wgR2VuZXJhdGVkIFNlcnZlciBDZXJ0aWZpY2F0ZTAdBgNVHQ4EFgQU/BTR8EuN
AJDy9bhxnk6Xw5JUrQswdAYDVR0jBG0wa4AU9KfAzJFGr2TzkfIn+Miyb4qHMnOh
SKRGMEQxCzAJBgNVBAYTAkRFMQ8wDQYDVQQIDAZIZXNzZW4xFDASBgNVBAoMC3By
aXZhY3lpZGVhMQ4wDAYDVQQDDAVDQTAwMYIJAPvI66yDzRIHMBMGA1UdJQQMMAoG
CCsGAQUFBwMBMA0GCSqGSIb3DQEBCwUAA4IBAQBaofGc5tyFWxA4QZb2D6AZ630y
aXTvve/uEzRvO+7Kuq449XaAlZCty3zoaD1ZHfUxntXAHDt2SSWIatO629SgcqpE
zwxjofH8grb/6f9yqYejhALbJ61gnVAeJzBE4Jo4xUIMQhgTb+nd3U0WeB84DW02
Uy7ZbVSbq3FNHLgeFjQD5Hkaqkbw6BBaqLZzT3R1ahpItG1C0KmmakpUp9Bw+UD2
D9HTbw0+cGJDu7YI1m552LtFTXMOHg5WIfOzehhGg/INGYls/CcbGpLbBmVy4xoJ
aiJYJkuyOvZPD/BotLzBQ/ld1hk/Xwvu8Vp/uvuzegyi/E5pS1RwAyzEgX+F
-----END CERTIFICATE-----
