Certificate:
    Data:
        Version: 3 (0x2)
        Serial Number: 268435666 (0x100000d2)
    Signature Algorithm: sha256WithRSAEncryption
        Issuer: C=DE, ST=Hessen, O=privacyidea, CN=CA001
        Validity
            Not Before: Jan  8 12:11:06 2018 GMT
            Not After : Jan  8 12:11:06 2019 GMT
        Subject: C=DE, ST=Hessen, O=privacyidea, CN=usercert
        Subject Public Key Info:
            Public Key Algorithm: rsaEncryption
                Public-Key: (2048 bit)
                Modulus:
                    00:dc:2f:d1:5f:29:97:d4:7c:c3:53:c8:30:bd:4b:
                    67:70:2c:24:6b:b8:5e:eb:21:7a:48:12:56:7c:81:
                    5c:48:75:b6:68:eb:f6:f2:98:4e:50:51:d1:7f:6c:
                    73:f3:0a:a7:ae:be:48:5e:e5:d6:e1:d9:2a:7c:32:
                    6e:4e:fd:08:f6:5a:54:49:23:73:c3:b9:07:18:d1:
                    ef:b3:ac:f8:8a:dc:94:96:a4:90:3a:8e:74:df:e6:
                    0d:37:1b:bd:5b:b7:25:1a:56:39:da:6f:91:aa:5e:
                    1c:74:f3:f9:7c:14:01:83:12:65:76:c7:bb:fe:36:
                    5b:95:e9:72:65:83:ed:3e:98:30:71:fa:87:dd:a3:
                    36:5a:30:03:2e:26:e0:61:d1:bf:02:3f:b6:06:1f:
                    4a:89:28:1c:5c:a2:ff:4e:be:94:e6:8c:e0:da:82:
                    f1:9d:29:32:48:30:73:b4:04:f6:42:1e:be:f7:e2:
                    32:32:27:3c:9d:89:2f:70:3e:85:9a:6f:5c:c5:09:
                    c0:8c:32:2f:72:22:c9:d2:95:1f:b6:ac:72:60:72:
                    b7:82:4d:6b:ce:5b:e3:00:d0:d2:2f:58:c6:e0:10:
                    e5:51:ca:4d:3b:2e:e6:7e:ab:84:d6:56:f1:93:35:
                    a0:93:64:26:81:75:2f:91:b5:16:06:38:0b:db:cc:
                    2d:07
                Exponent: 65537 (0x10001)
        X509v3 extensions:
            X509v3 Key Usage: 
                Digital Signature, Key Encipherment
            X509v3 Basic Constraints: 
                CA:FALSE
            Netscape Cert Type: 
                SSL Server
            Netscape Comment: 
                OpenSSL Generated Server Certificate
            X509v3 Subject Key Identifier: 
                FC:14:D1:F0:4B:8D:00:90:F2:F5:B8:71:9E:4E:97:C3:92:54:AD:0B
            X509v3 Authority Key Identifier: 
                keyid:F4:A7:C0:CC:91:46:AF:64:F3:91:F2:27:F8:C8:B2:6F:8A:87:32:73
                DirName:/C=DE/ST=Hessen/O=privacyidea/CN=CA001
                serial:FB:C8:EB:AC:83:CD:12:07

            X509v3 Extended Key Usage: 
                TLS Web Server Authentication
    Signature Algorithm: sha256WithRSAEncryption
         07:0a:9f:2a:aa:7f:e9:fb:b7:be:91:b7:85:22:2c:5f:b0:e5:
         32:cb:1a:f3:18:f2:5b:95:66:47:c1:24:58:80:5b:38:73:4b:
         f5:a7:ed:da:e3:b5:2e:65:99:c3:f0:f5:ce:1e:b3:41:b0:47:
         81:10:c8:fc:3e:16:ed:29:eb:d9:52:d6:60:3e:96:52:0a:e4:
         33:ef:7e:93:0a:be:6a:54:f2:28:22:68:ca:e0:15:f9:f3:75:
         e7:bc:f1:43:ac:3e:02:2b:be:c1:d8:02:c9:87:a6:db:ac:df:
         f0:20:22:f1:3d:40:1c:2e:2d:03:20:1e:0d:68:e3:9e:1e:58:
         db:77:1d:22:8e:3e:08:87:92:24:bc:c1:25:c4:fb:b7:ca:8d:
         f0:74:76:c7:e3:2c:98:34:ec:eb:10:9b:eb:b6:d9:60:30:56:
         03:2d:e0:d2:b4:96:81:24:a9:cf:70:26:bf:32:54:e6:8f:7b:
         1b:5c:98:87:15:f4:4b:67:e9:a9:05:df:0e:ee:a8:55:63:fa:
         0c:15:e5:93:c5:67:c0:08:a6:f5:47:f8:f7:79:1c:59:98:2a:
         8f:b1:69:a9:07:81:3e:d7:ab:07:f7:58:72:9f:a5:38:c9:f9:
         5f:14:c3:d2:08:4e:da:e6:ba:c4:22:fb:f1:4c:74:05:db:3e:
         35:85:fd:d3
-----BEGIN CERTIFICATE-----
MIIEGTCCAwGgAwIBAgIEEAAA0jANBgkqhkiG9w0BAQsFADBEMQswCQYDVQQGEwJE
RTEPMA0GA1UECAwGSGVzc2VuMRQwEgYDVQQKDAtwcml2YWN5aWRlYTEOMAwGA1UE
AwwFQ0EwMDEwHhcNMTgwMTA4MTIxMTA2WhcNMTkwMTA4MTIxMTA2WjBHMQswCQYD
VQQGEwJERTEPMA0GA1UECAwGSGVzc2VuMRQwEgYDVQQKDAtwcml2YWN5aWRlYTER
MA8GA1UEAwwIdXNlcmNlcnQwggEiMA0GCSqGSIb3DQEBAQUAA4IBDwAwggEKAoIB
AQDcL9FfKZfUfMNTyDC9S2dwLCRruF7rIXpIElZ8gVxIdbZo6/bymE5QUdF/bHPz
Cqeuvkhe5dbh2Sp8Mm5O/Qj2WlRJI3PDuQcY0e+zrPiK3JSWpJA6jnTf5g03G71b
tyUaVjnab5GqXhx08/l8FAGDEmV2x7v+NluV6XJlg+0+mDBx+ofdozZaMAMuJuBh
0b8CP7YGH0qJKBxcov9OvpTmjODagvGdKTJIMHO0BPZCHr734jIyJzydiS9wPoWa
b1zFCcCMMi9yIsnSlR+2rHJgcreCTWvOW+MA0NIvWMbgEOVRyk07LuZ+q4TWVvGT
NaCTZCaBdS+RtRYGOAvbzC0HAgMBAAGjggEOMIIBCjALBgNVHQ8EBAMCBaAwCQYD
VR0TBAIwADARBglghkgBhvhCAQEEBAMCBkAwMwYJYIZIAYb4QgENBCYWJE9wZW5T
U0wgR2VuZXJhdGVkIFNlcnZlciBDZXJ0aWZpY2F0ZTAdBgNVHQ4EFgQU/BTR8EuN
AJDy9bhxnk6Xw5JUrQswdAYDVR0jBG0wa4AU9KfAzJFGr2TzkfIn+Miyb4qHMnOh
SKRGMEQxCzAJBgNVBAYTAkRFMQ8wDQYDVQQIDAZIZXNzZW4xFDASBgNVBAoMC3By
aXZhY3lpZGVhMQ4wDAYDVQQDDAVDQTAwMYIJAPvI66yDzRIHMBMGA1UdJQQMMAoG
CCsGAQUFBwMBMA0GCSqGSIb3DQEBCwUAA4IBAQAHCp8qqn/p+7e+kbeFIixfsOUy
yxrzGPJblWZHwSRYgFs4c0v1p+3a47UuZZnD8PXOHrNBsEeBEMj8PhbtKevZUtZg
PpZSCuQz736TCr5qVPIoImjK4BX583XnvPFDrD4CK77B2ALJh6bbrN/wICLxPUAc
Li0DIB4NaOOeHljbdx0ijj4Ih5IkvMElxPu3yo3wdHbH4yyYNOzrEJvrttlgMFYD
LeDStJaBJKnPcCa/MlTmj3sbXJiHFfRLZ+mpBd8O7qhVY/oMFeWTxWfACKb1R/j3
eRxZmCqPsWmpB4E+16sH91hyn6U4yflfFMPSCE7a5rrEIvvxTHQF2z41hf3T
-----END CERTIFICATE-----
