Certificate:
    Data:
        Version: 3 (0x2)
        Serial Number: 268435665 (0x100000d1)
    Signature Algorithm: sha256WithRSAEncryption
        Issuer: C=DE, ST=Hessen, O=privacyidea, CN=CA001
        Validity
            Not Before: Jan  8 12:11:06 2018 GMT
            Not After : Jan  8 12:11:06 2019 GMT
        Subject: C=DE, ST=Hessen, O=privacyidea, CN=requester.localdomain
        Subject Public Key Info:
            Public Key Algorithm: rsaEncryption
                Public-Key: (2048 bit)
                Modulus:
                    00:cd:be:14:4f:fa:ce:01:3f:42:22:1b:1d:9c:af:
                    dd:92:d2:7f:db:6c:b7:3e:39:43:43:6b:13:03:f1:
                    05:f4:07:74:bc:76:69:28:0b:af:19:8e:d7:fc:e3:
                    cd:c6:58:f2:ca:7f:08:6d:53:fc:07:02:44:24:c6:
                    b4:34:4c:8c:04:fe:33:0e:40:e2:20:ba:02:73:5a:
                    f7:f5:4f:63:6e:cc:c6:b6:df:54:1d:37:39:7d:51:
                    36:26:5f:bd:dc:3f:a8:8b:6b:a2:ae:b6:9d:d6:21:
                    e7:df:41:b8:7a:28:2a:68:48:ca:a8:2d:ed:e1:e9:
                    46:5e:5a:72:6d:b4:84:38:87:91:fd:94:11:0b:28:
                    84:c6:c2:2f:2a:fb:01:f9:36:7a:09:75:d1:33:88:
                    3c:73:41:5b:c8:bf:94:89:70:a1:f0:c0:b9:2e:50:
                    53:1e:b1:17:64:69:f4:2d:81:e0:a9:0d:0e:32:e9:
                    ba:55:8a:85:f1:1b:6f:49:79:b4:7f:88:c3:0d:3e:
                    54:88:9b:3d:1f:38:8c:04:f3:ee:6a:63:2b:f5:c6:
                    db:b4:83:aa:c4:78:41:3a:7d:4b:e1:c8:3e:71:ca:
                    1b:61:59:ea:c6:c4:ca:32:5e:c9:e9:bf:12:29:e6:
                    c6:c3:63:fe:a0:55:da:7a:f1:60:98:4d:26:ed:fa:
                    70:2d
                Exponent: 65537 (0x10001)
        X509v3 extensions:
            X509v3 Key Usage: 
                Digital Signature, Key Encipherment
            X509v3 Basic Constraints: 
                CA:FALSE
            Netscape Cert Type: 
                SSL Server
            Netscape Comment: 
                OpenSSL Generated Server Certificate
            X509v3 Subject Key Identifier: 
                53:3F:ED:5D:09:07:B3:65:7B:AB:45:C9:24:5B:09:77:80:0A:96:ED
            X509v3 Authority Key Identifier: 
                keyid:F4:A7:C0:CC:91:46:AF:64:F3:91:F2:27:F8:C8:B2:6F:8A:87:32:73
                DirName:/C=DE/ST=Hessen/O=privacyidea/CN=CA001
                serial:FB:C8:EB:AC:83:CD:12:07

            X509v3 Extended Key Usage: 
                TLS Web Server Authentication
    Signature Algorithm: sha256WithRSAEncryption
         b9:f9:64:50:62:9e:8d:a7:20:2b:ea:43:41:8d:97:ab:c7:26:
         35:9a:81:7f:17:57:61:e7:14:d8:85:e3:2d:ef:e2:aa:61:4f:
         5a:34:4f:fb:e1:41:4e:2f:b3:8f:e3:38:df:f6:7b:b7:ff:57:
         64:3f:b9:1a:ec:78:5e:65:26:dd:fa:2d:a2:e5:28:a1:1b:6c:
         9e:73:af:47:51:4d:a4:2e:ec:5a:10:47:e7:c9:08:d6:0c:71:
         b9:ea:2d:47:d4:33:05:56:cf:6d:10:27:5e:e1:80:e4:84:e4:
         7b:8f:f4:e8:72:82:82:47:c5:0c:71:39:2a:3b:d7:23:df:7e:
         c5:88:4b:f2:89:3b:fa:7d:ab:cb:b3:f6:f6:0a:0a:ea:a8:08:
         7f:79:24:09:b0:74:e5:6e:65:38:7e:2d:a5:30:2f:c0:61:0a:
         02:7e:42:21:10:a6:7d:71:bd:ef:bf:db:63:6b:1d:4e:70:78:
         26:13:4f:88:cc:3c:e0:21:30:a6:27:f9:db:dd:b8:4d:79:0b:
         0a:e4:f9:70:c5:54:32:ff:0b:a7:2c:80:e6:51:a0:17:3a:5f:
         99:fe:f2:fd:4e:58:6e:eb:96:09:fc:6d:2c:87:90:33:99:ac:
         64:07:1a:90:bf:f9:19:32:3a:7f:da:7d:92:b0:0c:92:11:6e:
         d3:b6:f6:73
-----BEGIN CERTIFICATE-----
MIIEJjCCAw6gAwIBAgIEEAAA0TANBgkqhkiG9w0BAQsFADBEMQswCQYDVQQGEwJE
RTEPMA0GA1UECAwGSGVzc2VuMRQwEgYDVQQKDAtwcml2YWN5aWRlYTEOMAwGA1UE
AwwFQ0EwMDEwHhcNMTgwMTA4MTIxMTA2WhcNMTkwMTA4MTIxMTA2WjBUMQswCQYD
VQQGEwJERTEPMA0GA1UECAwGSGVzc2VuMRQwEgYDVQQKDAtwcml2YWN5aWRlYTEe
MBwGA1UEAwwVcmVxdWVzdGVyLmxvY2FsZG9tYWluMIIBIjANBgkqhkiG9w0BAQEF
AAOCAQ8AMIIBCgKCAQEAzb4UT/rOAT9CIhsdnK/dktJ/22y3PjlDQ2sTA/EF9Ad0
vHZpKAuvGY7X/OPNxljyyn8IbVP8BwJEJMa0NEyMBP4zDkDiILoCc1r39U9jbszG
tt9UHTc5fVE2Jl+93D+oi2uirrad1iHn30G4eigqaEjKqC3t4elGXlpybbSEOIeR
/ZQRCyiExsIvKvsB+TZ6CXXRM4g8c0FbyL+UiXCh8MC5LlBTHrEXZGn0LYHgqQ0O
Mum6VYqF8RtvSXm0f4jDDT5UiJs9HziMBPPuamMr9cbbtIOqxHhBOn1L4cg+ccob
YVnqxsTKMl7J6b8SKebGw2P+oFXaevFgmE0m7fpwLQIDAQABo4IBDjCCAQowCwYD
VR0PBAQDAgWgMAkGA1UdEwQCMAAwEQYJYIZIAYb4QgEBBAQDAgZAMDMGCWCGSAGG
+EIBDQQmFiRPcGVuU1NMIEdlbmVyYXRlZCBTZXJ2ZXIgQ2VydGlmaWNhdGUwHQYD
VR0OBBYEFFM/7V0JB7Nle6tFySRbCXeACpbtMHQGA1UdIwRtMGuAFPSnwMyRRq9k
85HyJ/jIsm+KhzJzoUikRjBEMQswCQYDVQQGEwJERTEPMA0GA1UECAwGSGVzc2Vu
MRQwEgYDVQQKDAtwcml2YWN5aWRlYTEOMAwGA1UEAwwFQ0EwMDGCCQD7yOusg80S
BzATBgNVHSUEDDAKBggrBgEFBQcDATANBgkqhkiG9w0BAQsFAAOCAQEAuflkUGKe
jacgK+pDQY2Xq8cmNZqBfxdXYecU2IXjLe/iqmFPWjRP++FBTi+zj+M43/Z7t/9X
ZD+5Gux4XmUm3fotouUooRtsnnOvR1FNpC7sWhBH58kI1gxxueotR9QzBVbPbRAn
XuGA5ITke4/06HKCgkfFDHE5KjvXI99+xYhL8ok7+n2ry7P29goK6qgIf3kkCbB0
5W5lOH4tpTAvwGEKAn5CIRCmfXG977/bY2sdTnB4JhNPiMw84CEwpif52924TXkL
CuT5cMVUMv8LpyyA5lGgFzpfmf7y/U5YbuuWCfxtLIeQM5msZAcakL/5GTI6f9p9
krAMkhFu07b2cw==
-----END CERTIFICATE-----
