Certificate:
    Data:
        Version: 3 (0x2)
        Serial Number: 268435677 (0x100000dd)
    Signature Algorithm: sha256WithRSAEncryption
        Issuer: C=DE, ST=Hessen, O=privacyidea, CN=CA001
        Validity
            Not Before: Dec  5 08:13:24 2017 GMT
            Not After : Dec  5 08:13:24 2018 GMT
        Subject: C=DE, ST=Hessen, O=privacyidea, CN=requester.localdomain
        Subject Public Key Info:
            Public Key Algorithm: rsaEncryption
                Public-Key: (2048 bit)
                Modulus:
                    00:cd:be:14:4f:fa:ce:01:3f:42:22:1b:1d:9c:af:
                    dd:92:d2:7f:db:6c:b7:3e:39:43:43:6b:13:03:f1:
                    05:f4:07:74:bc:76:69:28:0b:af:19:8e:d7:fc:e3:
                    cd:c6:58:f2:ca:7f:08:6d:53:fc:07:02:44:24:c6:
                    b4:34:4c:8c:04:fe:33:0e:40:e2:20:ba:02:73:5a:
                    f7:f5:4f:63:6e:cc:c6:b6:df:54:1d:37:39:7d:51:
                    36:26:5f:bd:dc:3f:a8:8b:6b:a2:ae:b6:9d:d6:21:
                    e7:df:41:b8:7a:28:2a:68:48:ca:a8:2d:ed:e1:e9:
                    46:5e:5a:72:6d:b4:84:38:87:91:fd:94:11:0b:28:
                    84:c6:c2:2f:2a:fb:01:f9:36:7a:09:75:d1:33:88:
                    3c:73:41:5b:c8:bf:94:89:70:a1:f0:c0:b9:2e:50:
                    53:1e:b1:17:64:69:f4:2d:81:e0:a9:0d:0e:32:e9:
                    ba:55:8a:85:f1:1b:6f:49:79:b4:7f:88:c3:0d:3e:
                    54:88:9b:3d:1f:38:8c:04:f3:ee:6a:63:2b:f5:c6:
                    db:b4:83:aa:c4:78:41:3a:7d:4b:e1:c8:3e:71:ca:
                    1b:61:59:ea:c6:c4:ca:32:5e:c9:e9:bf:12:29:e6:
                    c6:c3:63:fe:a0:55:da:7a:f1:60:98:4d:26:ed:fa:
                    70:2d
                Exponent: 65537 (0x10001)
        X509v3 extensions:
            X509v3 Key Usage: 
                Digital Signature, Key Encipherment
            X509v3 Basic Constraints: 
                CA:FALSE
            Netscape Cert Type: 
                SSL Server
            Netscape Comment: 
                OpenSSL Generated Server Certificate
            X509v3 Subject Key Identifier: 
                53:3F:ED:5D:09:07:B3:65:7B:AB:45:C9:24:5B:09:77:80:0A:96:ED
            X509v3 Authority Key Identifier: 
                keyid:F4:A7:C0:CC:91:46:AF:64:F3:91:F2:27:F8:C8:B2:6F:8A:87:32:73
                DirName:/C=DE/ST=Hessen/O=privacyidea/CN=CA001
                serial:FB:C8:EB:AC:83:CD:12:07

            X509v3 Extended Key Usage: 
                TLS Web Server Authentication
    Signature Algorithm: sha256WithRSAEncryption
         b5:0a:ce:ab:8b:9e:f0:13:b6:12:26:c5:15:1c:90:17:1f:a5:
         61:e9:96:fc:d2:b2:1c:42:35:1b:e1:d4:5d:11:d7:59:21:d6:
         75:4b:12:3c:7c:e1:1a:3a:78:bb:5b:f5:2a:d0:82:d6:e7:76:
         c3:7d:de:42:27:11:9a:59:c4:6c:50:b2:65:03:51:0a:07:b0:
         60:93:35:88:e1:dd:01:f8:37:74:13:d6:f1:18:2c:22:d3:d0:
         92:4e:2d:12:cb:ee:b7:6d:9d:34:eb:66:d8:22:47:89:69:da:
         1a:68:b8:9c:5b:60:49:1b:d3:28:45:cc:27:fb:d3:cd:4d:0d:
         a8:c5:ed:8d:68:1c:28:22:11:a6:25:1f:9f:e2:b1:ea:b0:f2:
         1a:be:a1:cc:7c:02:48:e4:c1:c0:a3:5a:bf:39:92:85:74:50:
         50:0b:46:dc:e9:a2:bf:ae:75:44:f2:3b:f8:40:86:6f:a8:2a:
         72:18:8c:7c:ea:d5:f3:39:b9:1c:22:58:a0:75:1a:a3:b8:1b:
         3e:f6:20:e1:b0:67:dd:b6:92:fd:3a:63:c9:88:07:6d:bc:a3:
         97:fc:7b:5e:94:b0:f1:31:fc:fa:78:c8:73:1c:b6:25:3d:dd:
         7a:d4:4e:81:84:b7:c8:2d:ad:f2:8b:ce:f7:de:42:0c:68:37:
         e2:a8:38:e2
-----BEGIN CERTIFICATE-----
MIIEJjCCAw6gAwIBAgIEEAAA3TANBgkqhkiG9w0BAQsFADBEMQswCQYDVQQGEwJE
RTEPMA0GA1UECAwGSGVzc2VuMRQwEgYDVQQKDAtwcml2YWN5aWRlYTEOMAwGA1UE
AwwFQ0EwMDEwHhcNMTcxMjA1MDgxMzI0WhcNMTgxMjA1MDgxMzI0WjBUMQswCQYD
VQQGEwJERTEPMA0GA1UECAwGSGVzc2VuMRQwEgYDVQQKDAtwcml2YWN5aWRlYTEe
MBwGA1UEAwwVcmVxdWVzdGVyLmxvY2FsZG9tYWluMIIBIjANBgkqhkiG9w0BAQEF
AAOCAQ8AMIIBCgKCAQEAzb4UT/rOAT9CIhsdnK/dktJ/22y3PjlDQ2sTA/EF9Ad0
vHZpKAuvGY7X/OPNxljyyn8IbVP8BwJEJMa0NEyMBP4zDkDiILoCc1r39U9jbszG
tt9UHTc5fVE2Jl+93D+oi2uirrad1iHn30G4eigqaEjKqC3t4elGXlpybbSEOIeR
/ZQRCyiExsIvKvsB+TZ6CXXRM4g8c0FbyL+UiXCh8MC5LlBTHrEXZGn0LYHgqQ0O
Mum6VYqF8RtvSXm0f4jDDT5UiJs9HziMBPPuamMr9cbbtIOqxHhBOn1L4cg+ccob
YVnqxsTKMl7J6b8SKebGw2P+oFXaevFgmE0m7fpwLQIDAQABo4IBDjCCAQowCwYD
VR0PBAQDAgWgMAkGA1UdEwQCMAAwEQYJYIZIAYb4QgEBBAQDAgZAMDMGCWCGSAGG
+EIBDQQmFiRPcGVuU1NMIEdlbmVyYXRlZCBTZXJ2ZXIgQ2VydGlmaWNhdGUwHQYD
VR0OBBYEFFM/7V0JB7Nle6tFySRbCXeACpbtMHQGA1UdIwRtMGuAFPSnwMyRRq9k
85HyJ/jIsm+KhzJzoUikRjBEMQswCQYDVQQGEwJERTEPMA0GA1UECAwGSGVzc2Vu
MRQwEgYDVQQKDAtwcml2YWN5aWRlYTEOMAwGA1UEAwwFQ0EwMDGCCQD7yOusg80S
BzATBgNVHSUEDDAKBggrBgEFBQcDATANBgkqhkiG9w0BAQsFAAOCAQEAtQrOq4ue
8BO2EibFFRyQFx+lYemW/NKyHEI1G+HUXRHXWSHWdUsSPHzhGjp4u1v1KtCC1ud2
w33eQicRmlnEbFCyZQNRCgewYJM1iOHdAfg3dBPW8RgsItPQkk4tEsvut22dNOtm
2CJHiWnaGmi4nFtgSRvTKEXMJ/vTzU0NqMXtjWgcKCIRpiUfn+Kx6rDyGr6hzHwC
SOTBwKNavzmShXRQUAtG3Omiv651RPI7+ECGb6gqchiMfOrV8zm5HCJYoHUao7gb
PvYg4bBn3baS/TpjyYgHbbyjl/x7XpSw8TH8+njIcxy2JT3detROgYS3yC2t8ovO
995CDGg34qg44g==
-----END CERTIFICATE-----
