Certificate:
    Data:
        Version: 3 (0x2)
        Serial Number: 268435683 (0x100000e3)
    Signature Algorithm: sha256WithRSAEncryption
        Issuer: C=DE, ST=Hessen, O=privacyidea, CN=CA001
        Validity
            Not Before: Sep  7 14:03:30 2017 GMT
            Not After : Sep  7 14:03:30 2018 GMT
        Subject: C=DE, ST=Hessen, O=privacyidea, CN=requester.localdomain
        Subject Public Key Info:
            Public Key Algorithm: rsaEncryption
                Public-Key: (2048 bit)
                Modulus:
                    00:cd:be:14:4f:fa:ce:01:3f:42:22:1b:1d:9c:af:
                    dd:92:d2:7f:db:6c:b7:3e:39:43:43:6b:13:03:f1:
                    05:f4:07:74:bc:76:69:28:0b:af:19:8e:d7:fc:e3:
                    cd:c6:58:f2:ca:7f:08:6d:53:fc:07:02:44:24:c6:
                    b4:34:4c:8c:04:fe:33:0e:40:e2:20:ba:02:73:5a:
                    f7:f5:4f:63:6e:cc:c6:b6:df:54:1d:37:39:7d:51:
                    36:26:5f:bd:dc:3f:a8:8b:6b:a2:ae:b6:9d:d6:21:
                    e7:df:41:b8:7a:28:2a:68:48:ca:a8:2d:ed:e1:e9:
                    46:5e:5a:72:6d:b4:84:38:87:91:fd:94:11:0b:28:
                    84:c6:c2:2f:2a:fb:01:f9:36:7a:09:75:d1:33:88:
                    3c:73:41:5b:c8:bf:94:89:70:a1:f0:c0:b9:2e:50:
                    53:1e:b1:17:64:69:f4:2d:81:e0:a9:0d:0e:32:e9:
                    ba:55:8a:85:f1:1b:6f:49:79:b4:7f:88:c3:0d:3e:
                    54:88:9b:3d:1f:38:8c:04:f3:ee:6a:63:2b:f5:c6:
                    db:b4:83:aa:c4:78:41:3a:7d:4b:e1:c8:3e:71:ca:
                    1b:61:59:ea:c6:c4:ca:32:5e:c9:e9:bf:12:29:e6:
                    c6:c3:63:fe:a0:55:da:7a:f1:60:98:4d:26:ed:fa:
                    70:2d
                Exponent: 65537 (0x10001)
        X509v3 extensions:
            X509v3 Key Usage: 
                Digital Signature, Key Encipherment
            X509v3 Basic Constraints: 
                CA:FALSE
            Netscape Cert Type: 
                SSL Server
            Netscape Comment: 
                OpenSSL Generated Server Certificate
            X509v3 Subject Key Identifier: 
                53:3F:ED:5D:09:07:B3:65:7B:AB:45:C9:24:5B:09:77:80:0A:96:ED
            X509v3 Authority Key Identifier: 
                keyid:F4:A7:C0:CC:91:46:AF:64:F3:91:F2:27:F8:C8:B2:6F:8A:87:32:73
                DirName:/C=DE/ST=Hessen/O=privacyidea/CN=CA001
                serial:FB:C8:EB:AC:83:CD:12:07

            X509v3 Extended Key Usage: 
                TLS Web Server Authentication
    Signature Algorithm: sha256WithRSAEncryption
         bf:2d:53:a3:30:ec:57:ca:ed:15:46:f6:43:72:70:88:a2:93:
         01:01:61:e4:0e:c8:05:56:25:41:cb:50:5f:0c:79:6c:b6:11:
         a3:42:a4:d7:18:a3:d6:3b:c7:d3:e3:53:00:fe:12:fa:c9:fd:
         5d:12:6e:4e:60:bf:43:0b:db:68:ee:15:eb:10:93:a0:0f:dd:
         e0:2c:7a:5b:59:a2:53:89:38:a2:66:ec:86:0d:ef:7c:ae:2b:
         ae:9f:8f:fd:ea:f4:66:ae:f2:ed:4d:89:5d:e2:72:54:ee:bf:
         94:77:90:54:e2:aa:7c:04:ec:7c:33:ce:58:87:ee:f1:2c:2a:
         b9:ab:e0:bc:88:a1:a3:8c:9c:60:f0:7f:7e:30:95:06:2c:82:
         b2:f5:75:4d:02:e8:4d:c3:ba:7c:0d:d5:01:1c:32:7a:57:48:
         ec:7f:5f:6c:23:d4:fb:30:35:74:d0:dc:a5:e6:7d:4d:6e:49:
         85:0b:c0:b3:14:6a:1f:e5:ec:95:1b:42:62:15:69:38:1a:7e:
         84:49:21:11:1f:c1:ea:2c:27:e1:8d:52:a3:16:9a:7e:13:a5:
         af:6a:ba:d5:a6:69:44:6c:d6:2b:8b:e0:0a:56:5d:9c:3e:ee:
         41:bd:40:fa:fc:a9:d9:69:09:6a:f1:62:13:97:b0:61:9a:ac:
         44:da:78:1d
-----BEGIN CERTIFICATE-----
MIIEJjCCAw6gAwIBAgIEEAAA4zANBgkqhkiG9w0BAQsFADBEMQswCQYDVQQGEwJE
RTEPMA0GA1UECAwGSGVzc2VuMRQwEgYDVQQKDAtwcml2YWN5aWRlYTEOMAwGA1UE
AwwFQ0EwMDEwHhcNMTcwOTA3MTQwMzMwWhcNMTgwOTA3MTQwMzMwWjBUMQswCQYD
VQQGEwJERTEPMA0GA1UECAwGSGVzc2VuMRQwEgYDVQQKDAtwcml2YWN5aWRlYTEe
MBwGA1UEAwwVcmVxdWVzdGVyLmxvY2FsZG9tYWluMIIBIjANBgkqhkiG9w0BAQEF
AAOCAQ8AMIIBCgKCAQEAzb4UT/rOAT9CIhsdnK/dktJ/22y3PjlDQ2sTA/EF9Ad0
vHZpKAuvGY7X/OPNxljyyn8IbVP8BwJEJMa0NEyMBP4zDkDiILoCc1r39U9jbszG
tt9UHTc5fVE2Jl+93D+oi2uirrad1iHn30G4eigqaEjKqC3t4elGXlpybbSEOIeR
/ZQRCyiExsIvKvsB+TZ6CXXRM4g8c0FbyL+UiXCh8MC5LlBTHrEXZGn0LYHgqQ0O
Mum6VYqF8RtvSXm0f4jDDT5UiJs9HziMBPPuamMr9cbbtIOqxHhBOn1L4cg+ccob
YVnqxsTKMl7J6b8SKebGw2P+oFXaevFgmE0m7fpwLQIDAQABo4IBDjCCAQowCwYD
VR0PBAQDAgWgMAkGA1UdEwQCMAAwEQYJYIZIAYb4QgEBBAQDAgZAMDMGCWCGSAGG
+EIBDQQmFiRPcGVuU1NMIEdlbmVyYXRlZCBTZXJ2ZXIgQ2VydGlmaWNhdGUwHQYD
VR0OBBYEFFM/7V0JB7Nle6tFySRbCXeACpbtMHQGA1UdIwRtMGuAFPSnwMyRRq9k
85HyJ/jIsm+KhzJzoUikRjBEMQswCQYDVQQGEwJERTEPMA0GA1UECAwGSGVzc2Vu
MRQwEgYDVQQKDAtwcml2YWN5aWRlYTEOMAwGA1UEAwwFQ0EwMDGCCQD7yOusg80S
BzATBgNVHSUEDDAKBggrBgEFBQcDATANBgkqhkiG9w0BAQsFAAOCAQEAvy1TozDs
V8rtFUb2Q3JwiKKTAQFh5A7IBVYlQctQXwx5bLYRo0Kk1xij1jvH0+NTAP4S+sn9
XRJuTmC/QwvbaO4V6xCToA/d4Cx6W1miU4k4ombshg3vfK4rrp+P/er0Zq7y7U2J
XeJyVO6/lHeQVOKqfATsfDPOWIfu8SwquavgvIiho4ycYPB/fjCVBiyCsvV1TQLo
TcO6fA3VARwyeldI7H9fbCPU+zA1dNDcpeZ9TW5JhQvAsxRqH+XslRtCYhVpOBp+
hEkhER/B6iwn4Y1SoxaafhOlr2q61aZpRGzWK4vgClZdnD7uQb1A+vyp2WkJavFi
E5ewYZqsRNp4HQ==
-----END CERTIFICATE-----
