Certificate:
    Data:
        Version: 3 (0x2)
        Serial Number: 268435682 (0x100000e2)
    Signature Algorithm: sha256WithRSAEncryption
        Issuer: C=DE, ST=Hessen, O=privacyidea, CN=CA001
        Validity
            Not Before: Sep  7 14:01:22 2017 GMT
            Not After : Sep  7 14:01:22 2018 GMT
        Subject: C=DE, ST=Hessen, O=privacyidea, CN=requester.localdomain
        Subject Public Key Info:
            Public Key Algorithm: rsaEncryption
                Public-Key: (2048 bit)
                Modulus:
                    00:cd:be:14:4f:fa:ce:01:3f:42:22:1b:1d:9c:af:
                    dd:92:d2:7f:db:6c:b7:3e:39:43:43:6b:13:03:f1:
                    05:f4:07:74:bc:76:69:28:0b:af:19:8e:d7:fc:e3:
                    cd:c6:58:f2:ca:7f:08:6d:53:fc:07:02:44:24:c6:
                    b4:34:4c:8c:04:fe:33:0e:40:e2:20:ba:02:73:5a:
                    f7:f5:4f:63:6e:cc:c6:b6:df:54:1d:37:39:7d:51:
                    36:26:5f:bd:dc:3f:a8:8b:6b:a2:ae:b6:9d:d6:21:
                    e7:df:41:b8:7a:28:2a:68:48:ca:a8:2d:ed:e1:e9:
                    46:5e:5a:72:6d:b4:84:38:87:91:fd:94:11:0b:28:
                    84:c6:c2:2f:2a:fb:01:f9:36:7a:09:75:d1:33:88:
                    3c:73:41:5b:c8:bf:94:89:70:a1:f0:c0:b9:2e:50:
                    53:1e:b1:17:64:69:f4:2d:81:e0:a9:0d:0e:32:e9:
                    ba:55:8a:85:f1:1b:6f:49:79:b4:7f:88:c3:0d:3e:
                    54:88:9b:3d:1f:38:8c:04:f3:ee:6a:63:2b:f5:c6:
                    db:b4:83:aa:c4:78:41:3a:7d:4b:e1:c8:3e:71:ca:
                    1b:61:59:ea:c6:c4:ca:32:5e:c9:e9:bf:12:29:e6:
                    c6:c3:63:fe:a0:55:da:7a:f1:60:98:4d:26:ed:fa:
                    70:2d
                Exponent: 65537 (0x10001)
        X509v3 extensions:
            X509v3 Key Usage: 
                Digital Signature, Key Encipherment
            X509v3 Basic Constraints: 
                CA:FALSE
            Netscape Cert Type: 
                SSL Server
            Netscape Comment: 
                OpenSSL Generated Server Certificate
            X509v3 Subject Key Identifier: 
                53:3F:ED:5D:09:07:B3:65:7B:AB:45:C9:24:5B:09:77:80:0A:96:ED
            X509v3 Authority Key Identifier: 
                keyid:F4:A7:C0:CC:91:46:AF:64:F3:91:F2:27:F8:C8:B2:6F:8A:87:32:73
                DirName:/C=DE/ST=Hessen/O=privacyidea/CN=CA001
                serial:FB:C8:EB:AC:83:CD:12:07

            X509v3 Extended Key Usage: 
                TLS Web Server Authentication
    Signature Algorithm: sha256WithRSAEncryption
         35:c0:62:17:48:ef:4d:34:f6:a1:7c:90:9d:8d:b7:05:8f:02:
         79:79:46:f3:c9:32:fd:6d:6c:19:37:8f:f4:94:42:14:d6:2e:
         42:b6:c1:9c:9b:49:ea:6e:0e:f6:fc:ff:a9:7e:67:3e:eb:b2:
         44:cd:cb:7b:32:29:07:ff:3d:93:34:36:da:e6:af:e3:97:b5:
         2b:86:7a:f3:3c:a5:f4:2a:7a:74:40:b3:a5:a0:3d:01:7d:d4:
         2f:13:b0:87:84:ad:0a:3f:56:bd:f6:72:50:3e:f6:2a:dd:c5:
         61:78:20:f4:eb:6a:5d:07:ce:ab:74:d0:e0:7a:bd:c9:89:db:
         d4:10:e8:90:cb:05:d2:a6:93:1f:e5:a4:dc:30:b4:0f:8f:67:
         02:82:79:b9:ec:10:a7:44:df:07:a4:19:c9:a6:14:4f:8c:b5:
         15:ef:ea:82:9c:48:b6:cb:d9:06:0e:a5:94:16:a6:ba:b0:f4:
         cc:36:f5:6c:a1:1e:5e:ac:1d:9a:27:16:11:3f:6f:8a:b4:d4:
         65:13:1d:dd:9d:0a:ed:20:1c:6d:bc:9e:e2:21:3f:f3:02:82:
         4a:40:e5:d0:40:0b:ce:c1:d1:90:2f:d4:52:0b:54:fd:3c:65:
         e6:c1:cc:71:fc:ec:63:42:3f:7f:41:b0:b3:01:f9:02:e4:57:
         67:57:49:1e
-----BEGIN CERTIFICATE-----
MIIEJjCCAw6gAwIBAgIEEAAA4jANBgkqhkiG9w0BAQsFADBEMQswCQYDVQQGEwJE
RTEPMA0GA1UECAwGSGVzc2VuMRQwEgYDVQQKDAtwcml2YWN5aWRlYTEOMAwGA1UE
AwwFQ0EwMDEwHhcNMTcwOTA3MTQwMTIyWhcNMTgwOTA3MTQwMTIyWjBUMQswCQYD
VQQGEwJERTEPMA0GA1UECAwGSGVzc2VuMRQwEgYDVQQKDAtwcml2YWN5aWRlYTEe
MBwGA1UEAwwVcmVxdWVzdGVyLmxvY2FsZG9tYWluMIIBIjANBgkqhkiG9w0BAQEF
AAOCAQ8AMIIBCgKCAQEAzb4UT/rOAT9CIhsdnK/dktJ/22y3PjlDQ2sTA/EF9Ad0
vHZpKAuvGY7X/OPNxljyyn8IbVP8BwJEJMa0NEyMBP4zDkDiILoCc1r39U9jbszG
tt9UHTc5fVE2Jl+93D+oi2uirrad1iHn30G4eigqaEjKqC3t4elGXlpybbSEOIeR
/ZQRCyiExsIvKvsB+TZ6CXXRM4g8c0FbyL+UiXCh8MC5LlBTHrEXZGn0LYHgqQ0O
Mum6VYqF8RtvSXm0f4jDDT5UiJs9HziMBPPuamMr9cbbtIOqxHhBOn1L4cg+ccob
YVnqxsTKMl7J6b8SKebGw2P+oFXaevFgmE0m7fpwLQIDAQABo4IBDjCCAQowCwYD
VR0PBAQDAgWgMAkGA1UdEwQCMAAwEQYJYIZIAYb4QgEBBAQDAgZAMDMGCWCGSAGG
+EIBDQQmFiRPcGVuU1NMIEdlbmVyYXRlZCBTZXJ2ZXIgQ2VydGlmaWNhdGUwHQYD
VR0OBBYEFFM/7V0JB7Nle6tFySRbCXeACpbtMHQGA1UdIwRtMGuAFPSnwMyRRq9k
85HyJ/jIsm+KhzJzoUikRjBEMQswCQYDVQQGEwJERTEPMA0GA1UECAwGSGVzc2Vu
MRQwEgYDVQQKDAtwcml2YWN5aWRlYTEOMAwGA1UEAwwFQ0EwMDGCCQD7yOusg80S
BzATBgNVHSUEDDAKBggrBgEFBQcDATANBgkqhkiG9w0BAQsFAAOCAQEANcBiF0jv
TTT2oXyQnY23BY8CeXlG88ky/W1sGTeP9JRCFNYuQrbBnJtJ6m4O9vz/qX5nPuuy
RM3LezIpB/89kzQ22uav45e1K4Z68zyl9Cp6dECzpaA9AX3ULxOwh4StCj9WvfZy
UD72Kt3FYXgg9OtqXQfOq3TQ4Hq9yYnb1BDokMsF0qaTH+Wk3DC0D49nAoJ5uewQ
p0TfB6QZyaYUT4y1Fe/qgpxItsvZBg6llBamurD0zDb1bKEeXqwdmicWET9virTU
ZRMd3Z0K7SAcbbye4iE/8wKCSkDl0EALzsHRkC/UUgtU/Txl5sHMcfzsY0I/f0Gw
swH5AuRXZ1dJHg==
-----END CERTIFICATE-----
