Certificate:
    Data:
        Version: 3 (0x2)
        Serial Number: 268435676 (0x100000dc)
    Signature Algorithm: sha256WithRSAEncryption
        Issuer: C=DE, ST=Hessen, O=privacyidea, CN=CA001
        Validity
            Not Before: Dec  5 08:09:44 2017 GMT
            Not After : Dec 25 08:09:44 2019 GMT
        Subject: CN=Steve Test/emailAddress=steve@openssl.org
        Subject Public Key Info:
            Public Key Algorithm: rsaEncryption
                Public-Key: (2048 bit)
                Modulus:
                    00:d2:81:89:20:51:48:0f:73:f4:11:32:24:d5:1f:
                    1c:fd:5c:f5:b6:e6:c5:f0:52:81:dc:d2:af:66:4a:
                    7c:93:31:61:5c:af:d1:6d:06:70:03:60:7c:72:0c:
                    88:dd:49:cd:9e:02:6c:d2:5a:d7:53:0f:f3:da:be:
                    69:64:b5:0f:0c:00:e3:b3:50:47:a3:b3:9b:ba:13:
                    50:d6:58:5a:4b:ab:39:e0:11:ca:0a:27:67:03:78:
                    22:66:6d:92:1e:1b:5c:49:ae:e6:6b:d1:8e:3b:9d:
                    06:d3:c6:ac:4d:53:43:10:ab:e8:96:c1:87:82:97:
                    99:8f:20:d3:99:12:37:31:84:e1:8a:ff:29:03:5f:
                    22:90:3e:7f:9b:e0:20:c1:ad:dc:ae:4c:39:1a:31:
                    96:17:02:8c:b2:d9:b4:0d:20:12:9b:7d:86:54:fd:
                    33:fd:c1:2a:62:46:f8:60:96:cf:6e:01:6f:22:df:
                    13:47:e7:97:ec:05:72:23:a3:62:f8:fa:ef:ac:9c:
                    72:f0:37:cb:2f:37:cf:90:a8:27:51:86:c6:d7:78:
                    08:8f:7e:25:a2:15:70:a2:fb:1c:b6:15:5e:a0:97:
                    8b:81:4c:09:28:8a:27:3b:94:bc:71:db:5b:71:37:
                    9a:2b:16:e0:6f:b5:c9:f5:4b:4f:20:ba:65:cf:af:
                    ad:ad
                Exponent: 65537 (0x10001)
        X509v3 extensions:
            X509v3 Key Usage: 
                Digital Signature, Key Encipherment
            X509v3 Basic Constraints: 
                CA:FALSE
            Netscape Cert Type: 
                SSL Server
            Netscape Comment: 
                OpenSSL Generated Server Certificate
            X509v3 Subject Key Identifier: 
                E5:25:6D:3E:AF:0D:DD:3F:4C:F2:45:19:39:D5:14:DB:7E:9C:C0:AD
            X509v3 Authority Key Identifier: 
                keyid:F4:A7:C0:CC:91:46:AF:64:F3:91:F2:27:F8:C8:B2:6F:8A:87:32:73
                DirName:/C=DE/ST=Hessen/O=privacyidea/CN=CA001
                serial:FB:C8:EB:AC:83:CD:12:07

            X509v3 Extended Key Usage: 
                TLS Web Server Authentication
    Signature Algorithm: sha256WithRSAEncryption
         b9:56:a4:4c:10:17:97:17:16:29:a2:e5:71:65:3c:17:79:80:
         5a:ae:fe:29:7b:9e:06:9e:14:d3:da:9c:2c:1f:bf:2f:81:dc:
         90:1f:73:2e:6c:f3:41:78:02:71:60:4c:d6:3e:07:50:f4:f0:
         13:18:a2:36:42:b5:76:8c:b4:c2:be:1a:90:38:c1:47:98:88:
         dc:5a:db:eb:20:e1:24:83:d0:5d:9d:ba:4e:83:89:ff:21:01:
         ac:9f:35:ef:80:f6:7a:33:8e:22:b2:5a:82:46:b8:b2:7c:b4:
         ee:36:e6:6c:96:24:fb:99:75:49:11:78:3e:92:08:1c:ec:80:
         46:55:da:a1:55:4e:39:c3:40:fa:af:4f:de:7a:55:a6:f2:76:
         72:5c:cc:21:5b:23:00:1b:fa:03:5f:39:35:bb:b7:f7:db:7a:
         30:4d:9c:9a:d5:b7:8a:76:2f:34:1b:2c:0c:9b:96:5e:33:71:
         71:2a:eb:5f:98:0e:72:f1:ab:a1:57:3a:c7:7d:e1:09:1c:5b:
         54:35:82:9b:18:3a:40:26:56:b7:46:3d:d1:a5:f0:85:61:d4:
         b8:c7:3f:ef:09:6a:1d:dc:01:ce:a7:82:1d:02:fb:80:70:b3:
         c7:74:8a:b3:90:a1:e9:dc:ab:3b:3c:e4:91:aa:fb:53:46:9e:
         2c:42:a6:fb
-----BEGIN CERTIFICATE-----
MIIECTCCAvGgAwIBAgIEEAAA3DANBgkqhkiG9w0BAQsFADBEMQswCQYDVQQGEwJE
RTEPMA0GA1UECAwGSGVzc2VuMRQwEgYDVQQKDAtwcml2YWN5aWRlYTEOMAwGA1UE
AwwFQ0EwMDEwHhcNMTcxMjA1MDgwOTQ0WhcNMTkxMjI1MDgwOTQ0WjA3MRMwEQYD
VQQDDApTdGV2ZSBUZXN0MSAwHgYJKoZIhvcNAQkBFhFzdGV2ZUBvcGVuc3NsLm9y
ZzCCASIwDQYJKoZIhvcNAQEBBQADggEPADCCAQoCggEBANKBiSBRSA9z9BEyJNUf
HP1c9bbmxfBSgdzSr2ZKfJMxYVyv0W0GcANgfHIMiN1JzZ4CbNJa11MP89q+aWS1
DwwA47NQR6Ozm7oTUNZYWkurOeARygonZwN4ImZtkh4bXEmu5mvRjjudBtPGrE1T
QxCr6JbBh4KXmY8g05kSNzGE4Yr/KQNfIpA+f5vgIMGt3K5MORoxlhcCjLLZtA0g
Ept9hlT9M/3BKmJG+GCWz24BbyLfE0fnl+wFciOjYvj676yccvA3yy83z5CoJ1GG
xtd4CI9+JaIVcKL7HLYVXqCXi4FMCSiKJzuUvHHbW3E3misW4G+1yfVLTyC6Zc+v
ra0CAwEAAaOCAQ4wggEKMAsGA1UdDwQEAwIFoDAJBgNVHRMEAjAAMBEGCWCGSAGG
+EIBAQQEAwIGQDAzBglghkgBhvhCAQ0EJhYkT3BlblNTTCBHZW5lcmF0ZWQgU2Vy
dmVyIENlcnRpZmljYXRlMB0GA1UdDgQWBBTlJW0+rw3dP0zyRRk51RTbfpzArTB0
BgNVHSMEbTBrgBT0p8DMkUavZPOR8if4yLJviocyc6FIpEYwRDELMAkGA1UEBhMC
REUxDzANBgNVBAgMBkhlc3NlbjEUMBIGA1UECgwLcHJpdmFjeWlkZWExDjAMBgNV
BAMMBUNBMDAxggkA+8jrrIPNEgcwEwYDVR0lBAwwCgYIKwYBBQUHAwEwDQYJKoZI
hvcNAQELBQADggEBALlWpEwQF5cXFimi5XFlPBd5gFqu/il7ngaeFNPanCwfvy+B
3JAfcy5s80F4AnFgTNY+B1D08BMYojZCtXaMtMK+GpA4wUeYiNxa2+sg4SSD0F2d
uk6Dif8hAayfNe+A9nozjiKyWoJGuLJ8tO425myWJPuZdUkReD6SCBzsgEZV2qFV
TjnDQPqvT956VabydnJczCFbIwAb+gNfOTW7t/fbejBNnJrVt4p2LzQbLAybll4z
cXEq61+YDnLxq6FXOsd94QkcW1Q1gpsYOkAmVrdGPdGl8IVh1LjHP+8Jah3cAc6n
gh0C+4Bws8d0irOQoencqzs85JGq+1NGnixCpvs=
-----END CERTIFICATE-----
