Certificate:
    Data:
        Version: 3 (0x2)
        Serial Number: 268435679 (0x100000df)
    Signature Algorithm: sha256WithRSAEncryption
        Issuer: C=DE, ST=Hessen, O=privacyidea, CN=CA001
        Validity
            Not Before: Dec  5 08:21:49 2017 GMT
            Not After : Dec  5 08:21:49 2018 GMT
        Subject: CN=selfservice,CN=user,O=realm1/emailAddress=meine
        Subject Public Key Info:
            Public Key Algorithm: rsaEncryption
                Public-Key: (2048 bit)
                Modulus:
                    00:cf:3c:d4:33:0e:12:c4:e6:da:cd:b6:56:a1:1c:
                    26:bb:26:1c:8a:4a:73:a8:58:8a:b6:1e:b3:8b:99:
                    d2:1d:07:c2:92:89:79:c0:69:d8:c8:df:28:61:98:
                    1e:b3:fe:ae:2b:bd:78:a9:f7:6e:47:dc:a3:a0:16:
                    8c:85:02:c1:4e:92:fd:72:6e:f0:c8:03:29:9b:b8:
                    00:6e:c0:83:95:c8:34:20:36:9c:b3:e5:e4:e6:76:
                    73:a3:1a:ad:40:96:e0:53:54:00:ec:76:79:9a:c6:
                    0d:7e:b6:bd:29:ec:83:f3:cb:89:a4:cb:6c:00:ba:
                    0c:c5:78:0f:ff:69:b8:94:f4:04:70:43:3f:d8:9e:
                    d7:a7:fb:5d:ce:75:8e:da:e7:c4:07:b1:9d:de:6f:
                    88:4b:b6:4d:9a:cf:f9:bc:fa:9f:cd:32:6d:f6:3a:
                    0b:0d:23:42:78:ec:97:42:bf:0e:4d:60:56:e1:d3:
                    02:f2:19:cb:84:57:90:e5:70:a1:a2:83:35:86:e2:
                    da:86:9f:f9:8a:c4:79:b3:52:28:da:cb:bb:34:ca:
                    d3:da:91:4a:cf:8d:76:a2:b2:6b:9b:f9:96:fd:09:
                    2a:da:11:23:4d:f0:cb:d6:b2:b1:0e:12:6c:9a:19:
                    65:98:87:ca:e4:ee:24:ce:44:ac:90:8f:9d:1b:c5:
                    2a:9d
                Exponent: 65537 (0x10001)
        X509v3 extensions:
            X509v3 Key Usage: 
                Digital Signature, Key Encipherment
            X509v3 Basic Constraints: 
                CA:FALSE
            Netscape Cert Type: 
                SSL Server
            Netscape Comment: 
                OpenSSL Generated Server Certificate
            X509v3 Subject Key Identifier: 
                4D:07:90:AD:FF:1D:0D:E7:1A:DD:D6:2E:FA:BA:34:CB:AA:1F:24:C6
            X509v3 Authority Key Identifier: 
                keyid:F4:A7:C0:CC:91:46:AF:64:F3:91:F2:27:F8:C8:B2:6F:8A:87:32:73
                DirName:/C=DE/ST=Hessen/O=privacyidea/CN=CA001
                serial:FB:C8:EB:AC:83:CD:12:07

            X509v3 Extended Key Usage: 
                TLS Web Server Authentication
    Signature Algorithm: sha256WithRSAEncryption
         91:71:59:0d:b1:13:07:d6:44:a8:fc:a6:84:21:21:33:d3:39:
         6c:f8:cf:14:b6:0d:02:05:96:8e:af:69:98:fe:91:ca:af:2e:
         2b:50:b2:ba:50:d7:f3:57:f4:5b:6a:2b:68:e7:06:fc:a5:48:
         2c:36:fe:bf:7f:81:9d:a3:f0:5a:e4:59:32:e5:1e:1f:fc:10:
         b0:0e:f2:0d:a1:e7:a2:ff:03:15:68:f9:bb:65:be:fd:af:35:
         5d:64:10:21:79:bc:14:31:97:71:14:6d:05:cf:2b:2a:05:05:
         58:9a:90:ce:1c:74:35:d3:84:a3:89:a1:40:09:58:5a:8f:2e:
         58:39:6f:03:38:44:46:fa:73:16:d4:32:17:cc:32:8e:81:08:
         5d:e5:65:6b:75:4d:3b:db:eb:57:5e:ec:dd:0f:bd:35:31:5e:
         15:70:54:14:4a:17:e1:15:89:32:b0:c7:87:ee:34:e1:cb:c0:
         8a:81:c9:d9:96:38:e4:c8:f8:99:9a:f6:ac:c0:65:32:0a:53:
         4b:f6:ae:04:c0:d1:f7:74:dc:bb:6d:1c:e7:08:4d:f8:35:b5:
         f9:11:68:6f:2a:15:d1:c8:9d:35:90:97:f2:54:8c:f5:b0:3e:
         11:02:37:58:4e:08:ca:68:ab:28:9a:48:dc:2b:94:e6:65:00:
         b7:c0:c5:21
-----BEGIN CERTIFICATE-----
MIIEDzCCAvegAwIBAgIEEAAA3zANBgkqhkiG9w0BAQsFADBEMQswCQYDVQQGEwJE
RTEPMA0GA1UECAwGSGVzc2VuMRQwEgYDVQQKDAtwcml2YWN5aWRlYTEOMAwGA1UE
AwwFQ0EwMDEwHhcNMTcxMjA1MDgyMTQ5WhcNMTgxMjA1MDgyMTQ5WjA9MSUwIwYD
VQQDDBxzZWxmc2VydmljZSxDTj11c2VyLE89cmVhbG0xMRQwEgYJKoZIhvcNAQkB
FgVtZWluZTCCASIwDQYJKoZIhvcNAQEBBQADggEPADCCAQoCggEBAM881DMOEsTm
2s22VqEcJrsmHIpKc6hYirYes4uZ0h0HwpKJecBp2MjfKGGYHrP+riu9eKn3bkfc
o6AWjIUCwU6S/XJu8MgDKZu4AG7Ag5XINCA2nLPl5OZ2c6MarUCW4FNUAOx2eZrG
DX62vSnsg/PLiaTLbAC6DMV4D/9puJT0BHBDP9ie16f7Xc51jtrnxAexnd5viEu2
TZrP+bz6n80ybfY6Cw0jQnjsl0K/Dk1gVuHTAvIZy4RXkOVwoaKDNYbi2oaf+YrE
ebNSKNrLuzTK09qRSs+NdqKya5v5lv0JKtoRI03wy9aysQ4SbJoZZZiHyuTuJM5E
rJCPnRvFKp0CAwEAAaOCAQ4wggEKMAsGA1UdDwQEAwIFoDAJBgNVHRMEAjAAMBEG
CWCGSAGG+EIBAQQEAwIGQDAzBglghkgBhvhCAQ0EJhYkT3BlblNTTCBHZW5lcmF0
ZWQgU2VydmVyIENlcnRpZmljYXRlMB0GA1UdDgQWBBRNB5Ct/x0N5xrd1i76ujTL
qh8kxjB0BgNVHSMEbTBrgBT0p8DMkUavZPOR8if4yLJviocyc6FIpEYwRDELMAkG
A1UEBhMCREUxDzANBgNVBAgMBkhlc3NlbjEUMBIGA1UECgwLcHJpdmFjeWlkZWEx
DjAMBgNVBAMMBUNBMDAxggkA+8jrrIPNEgcwEwYDVR0lBAwwCgYIKwYBBQUHAwEw
DQYJKoZIhvcNAQELBQADggEBAJFxWQ2xEwfWRKj8poQhITPTOWz4zxS2DQIFlo6v
aZj+kcqvLitQsrpQ1/NX9FtqK2jnBvylSCw2/r9/gZ2j8FrkWTLlHh/8ELAO8g2h
56L/AxVo+btlvv2vNV1kECF5vBQxl3EUbQXPKyoFBViakM4cdDXThKOJoUAJWFqP
Llg5bwM4REb6cxbUMhfMMo6BCF3lZWt1TTvb61de7N0PvTUxXhVwVBRKF+EViTKw
x4fuNOHLwIqBydmWOOTI+Jma9qzAZTIKU0v2rgTA0fd03LttHOcITfg1tfkRaG8q
FdHInTWQl/JUjPWwPhECN1hOCMpoqyiaSNwrlOZlALfAxSE=
-----END CERTIFICATE-----
