Certificate:
    Data:
        Version: 3 (0x2)
        Serial Number: 268435678 (0x100000de)
    Signature Algorithm: sha256WithRSAEncryption
        Issuer: C=DE, ST=Hessen, O=privacyidea, CN=CA001
        Validity
            Not Before: Dec  5 08:13:25 2017 GMT
            Not After : Dec  5 08:13:25 2018 GMT
        Subject: OU=realm1, CN=cornelius/emailAddress=user@localhost.localdomain
        Subject Public Key Info:
            Public Key Algorithm: rsaEncryption
                Public-Key: (2048 bit)
                Modulus:
                    00:e8:99:08:0f:15:70:0c:b3:53:6c:a9:73:8d:fc:
                    72:da:a7:29:46:0c:39:b6:98:06:a6:96:4b:26:1b:
                    2b:17:d7:57:60:c9:57:1b:57:e7:69:70:32:60:64:
                    a9:83:60:6e:28:24:45:a1:3b:ba:cb:18:84:db:73:
                    12:7a:77:b1:f1:d5:50:1f:d5:8d:1a:3e:51:82:1b:
                    9c:7c:dc:90:5e:62:e9:5a:89:ec:56:d1:e6:d9:39:
                    97:56:d4:90:43:af:ae:c0:98:a2:ac:56:2b:f3:f0:
                    5d:ee:99:90:f2:54:94:a7:c3:be:34:b6:e2:9a:de:
                    df:f9:25:76:bf:2b:de:de:cf:3f:92:51:65:6a:c2:
                    29:96:3d:ae:64:92:98:2c:12:e1:37:5a:fe:93:d7:
                    9b:26:04:61:0f:68:0c:57:e7:ec:dd:5e:6b:cf:bf:
                    ce:74:86:c6:b8:2b:e1:f1:0a:28:6e:18:34:5b:60:
                    53:30:ce:11:61:44:75:0e:43:f3:ea:89:2d:69:54:
                    db:1a:ac:ca:dc:53:b8:e3:17:01:eb:2d:51:05:d4:
                    bc:b1:d5:c8:65:76:29:6c:69:e4:50:15:da:23:da:
                    f8:9d:50:8b:d9:c3:45:55:3c:42:69:ce:09:34:f7:
                    52:80:3c:8d:fa:79:df:fc:48:36:23:76:10:9c:f8:
                    36:15
                Exponent: 65537 (0x10001)
        X509v3 extensions:
            X509v3 Key Usage: 
                Digital Signature, Key Encipherment
            X509v3 Basic Constraints: 
                CA:FALSE
            Netscape Cert Type: 
                SSL Server
            Netscape Comment: 
                OpenSSL Generated Server Certificate
            X509v3 Subject Key Identifier: 
                C1:35:2A:F5:56:7D:09:23:6C:E4:8E:63:C1:43:E9:AA:BC:98:A2:BA
            X509v3 Authority Key Identifier: 
                keyid:F4:A7:C0:CC:91:46:AF:64:F3:91:F2:27:F8:C8:B2:6F:8A:87:32:73
                DirName:/C=DE/ST=Hessen/O=privacyidea/CN=CA001
                serial:FB:C8:EB:AC:83:CD:12:07

            X509v3 Extended Key Usage: 
                TLS Web Server Authentication
    Signature Algorithm: sha256WithRSAEncryption
         81:d2:47:f6:3f:c1:26:4a:3e:e3:56:91:64:71:55:7e:9b:3f:
         3a:f5:9b:f9:a7:06:7d:07:53:c1:24:54:5e:58:d4:99:81:c3:
         86:e7:7a:69:d2:5d:12:19:ef:0e:3e:72:a8:cd:7b:d6:8e:76:
         e6:3d:33:ad:70:8d:f1:19:8f:54:94:34:95:1b:27:22:8b:9c:
         d0:59:2e:da:03:a7:e1:72:02:93:81:7b:ea:df:08:2e:f6:4b:
         cb:55:94:a8:1d:7b:9c:40:bb:6c:3b:12:64:c0:d0:35:23:b9:
         a2:1c:fa:c3:53:88:0f:40:2b:07:2f:41:6a:94:bc:ec:aa:53:
         2a:90:7d:b6:2f:9c:80:77:28:e8:c4:73:cc:94:73:8c:3f:a0:
         18:5a:5c:b4:49:35:e2:d9:96:57:ec:fa:c0:43:c9:77:03:5e:
         b9:70:7b:aa:83:23:26:b5:c2:bc:13:5b:d0:9c:e6:56:1e:49:
         53:9c:ea:98:5e:9a:45:8b:85:e9:95:91:37:1c:e1:11:48:04:
         1c:63:dc:b2:17:aa:2d:b9:09:60:9c:1f:34:52:e0:02:36:46:
         e0:30:cf:e5:d4:42:15:4f:e4:66:c9:5f:c9:52:77:97:98:14:
         37:52:01:e6:65:e4:10:6b:7f:11:fa:bc:37:ff:7b:9b:c8:58:
         75:8c:b1:be
-----BEGIN CERTIFICATE-----
MIIEIjCCAwqgAwIBAgIEEAAA3jANBgkqhkiG9w0BAQsFADBEMQswCQYDVQQGEwJE
RTEPMA0GA1UECAwGSGVzc2VuMRQwEgYDVQQKDAtwcml2YWN5aWRlYTEOMAwGA1UE
AwwFQ0EwMDEwHhcNMTcxMjA1MDgxMzI1WhcNMTgxMjA1MDgxMzI1WjBQMQ8wDQYD
VQQLDAZyZWFsbTExEjAQBgNVBAMMCWNvcm5lbGl1czEpMCcGCSqGSIb3DQEJARYa
dXNlckBsb2NhbGhvc3QubG9jYWxkb21haW4wggEiMA0GCSqGSIb3DQEBAQUAA4IB
DwAwggEKAoIBAQDomQgPFXAMs1NsqXON/HLapylGDDm2mAamlksmGysX11dgyVcb
V+dpcDJgZKmDYG4oJEWhO7rLGITbcxJ6d7Hx1VAf1Y0aPlGCG5x83JBeYulaiexW
0ebZOZdW1JBDr67AmKKsVivz8F3umZDyVJSnw740tuKa3t/5JXa/K97ezz+SUWVq
wimWPa5kkpgsEuE3Wv6T15smBGEPaAxX5+zdXmvPv850hsa4K+HxCihuGDRbYFMw
zhFhRHUOQ/PqiS1pVNsarMrcU7jjFwHrLVEF1Lyx1chldilsaeRQFdoj2vidUIvZ
w0VVPEJpzgk091KAPI36ed/8SDYjdhCc+DYVAgMBAAGjggEOMIIBCjALBgNVHQ8E
BAMCBaAwCQYDVR0TBAIwADARBglghkgBhvhCAQEEBAMCBkAwMwYJYIZIAYb4QgEN
BCYWJE9wZW5TU0wgR2VuZXJhdGVkIFNlcnZlciBDZXJ0aWZpY2F0ZTAdBgNVHQ4E
FgQUwTUq9VZ9CSNs5I5jwUPpqryYorowdAYDVR0jBG0wa4AU9KfAzJFGr2TzkfIn
+Miyb4qHMnOhSKRGMEQxCzAJBgNVBAYTAkRFMQ8wDQYDVQQIDAZIZXNzZW4xFDAS
BgNVBAoMC3ByaXZhY3lpZGVhMQ4wDAYDVQQDDAVDQTAwMYIJAPvI66yDzRIHMBMG
A1UdJQQMMAoGCCsGAQUFBwMBMA0GCSqGSIb3DQEBCwUAA4IBAQCB0kf2P8EmSj7j
VpFkcVV+mz869Zv5pwZ9B1PBJFReWNSZgcOG53pp0l0SGe8OPnKozXvWjnbmPTOt
cI3xGY9UlDSVGycii5zQWS7aA6fhcgKTgXvq3wgu9kvLVZSoHXucQLtsOxJkwNA1
I7miHPrDU4gPQCsHL0FqlLzsqlMqkH22L5yAdyjoxHPMlHOMP6AYWly0STXi2ZZX
7PrAQ8l3A165cHuqgyMmtcK8E1vQnOZWHklTnOqYXppFi4XplZE3HOERSAQcY9yy
F6otuQlgnB80UuACNkbgMM/l1EIVT+RmyV/JUneXmBQ3UgHmZeQQa38R+rw3/3ub
yFh1jLG+
-----END CERTIFICATE-----
