Certificate:
    Data:
        Version: 3 (0x2)
        Serial Number: 268435680 (0x100000e0)
    Signature Algorithm: sha256WithRSAEncryption
        Issuer: C=DE, ST=Hessen, O=privacyidea, CN=CA001
        Validity
            Not Before: Sep  7 13:46:16 2017 GMT
            Not After : Sep  7 13:46:16 2018 GMT
        Subject: C=DE, ST=Hessen, O=privacyidea, CN=requester.localdomain
        Subject Public Key Info:
            Public Key Algorithm: rsaEncryption
                Public-Key: (2048 bit)
                Modulus:
                    00:cd:be:14:4f:fa:ce:01:3f:42:22:1b:1d:9c:af:
                    dd:92:d2:7f:db:6c:b7:3e:39:43:43:6b:13:03:f1:
                    05:f4:07:74:bc:76:69:28:0b:af:19:8e:d7:fc:e3:
                    cd:c6:58:f2:ca:7f:08:6d:53:fc:07:02:44:24:c6:
                    b4:34:4c:8c:04:fe:33:0e:40:e2:20:ba:02:73:5a:
                    f7:f5:4f:63:6e:cc:c6:b6:df:54:1d:37:39:7d:51:
                    36:26:5f:bd:dc:3f:a8:8b:6b:a2:ae:b6:9d:d6:21:
                    e7:df:41:b8:7a:28:2a:68:48:ca:a8:2d:ed:e1:e9:
                    46:5e:5a:72:6d:b4:84:38:87:91:fd:94:11:0b:28:
                    84:c6:c2:2f:2a:fb:01:f9:36:7a:09:75:d1:33:88:
                    3c:73:41:5b:c8:bf:94:89:70:a1:f0:c0:b9:2e:50:
                    53:1e:b1:17:64:69:f4:2d:81:e0:a9:0d:0e:32:e9:
                    ba:55:8a:85:f1:1b:6f:49:79:b4:7f:88:c3:0d:3e:
                    54:88:9b:3d:1f:38:8c:04:f3:ee:6a:63:2b:f5:c6:
                    db:b4:83:aa:c4:78:41:3a:7d:4b:e1:c8:3e:71:ca:
                    1b:61:59:ea:c6:c4:ca:32:5e:c9:e9:bf:12:29:e6:
                    c6:c3:63:fe:a0:55:da:7a:f1:60:98:4d:26:ed:fa:
                    70:2d
                Exponent: 65537 (0x10001)
        X509v3 extensions:
            X509v3 Key Usage: 
                Digital Signature, Key Encipherment
            X509v3 Basic Constraints: 
                CA:FALSE
            Netscape Cert Type: 
                SSL Server
            Netscape Comment: 
                OpenSSL Generated Server Certificate
            X509v3 Subject Key Identifier: 
                53:3F:ED:5D:09:07:B3:65:7B:AB:45:C9:24:5B:09:77:80:0A:96:ED
            X509v3 Authority Key Identifier: 
                keyid:F4:A7:C0:CC:91:46:AF:64:F3:91:F2:27:F8:C8:B2:6F:8A:87:32:73
                DirName:/C=DE/ST=Hessen/O=privacyidea/CN=CA001
                serial:FB:C8:EB:AC:83:CD:12:07

            X509v3 Extended Key Usage: 
                TLS Web Server Authentication
    Signature Algorithm: sha256WithRSAEncryption
         ac:35:76:b9:d7:01:ad:a1:02:c3:b8:1b:81:8d:54:9b:80:a8:
         b5:1f:84:1b:53:25:34:dd:f4:98:69:1a:fb:7a:2f:91:05:2d:
         36:21:95:a6:df:db:2a:e9:a8:9e:59:2f:9c:65:8f:08:e8:23:
         ef:db:33:4b:d6:42:4a:8f:31:eb:85:3c:95:80:e4:00:ed:09:
         25:73:cd:d5:f6:ec:04:b4:9a:0f:13:e0:ba:64:34:4e:40:a7:
         f8:ff:0a:ba:fb:be:67:2d:c2:d9:d0:f7:ba:75:73:78:85:63:
         cc:1a:01:37:86:b4:e0:8a:1d:92:76:f7:31:be:19:6b:9e:a1:
         5f:7a:d1:7f:75:9a:25:2e:5e:fd:b7:b8:29:3c:2d:ab:3f:ac:
         18:3a:8c:62:d1:3f:4d:53:ee:b7:75:86:19:ed:ae:74:5f:a1:
         0f:a3:41:82:23:7c:bf:5e:3e:26:1d:31:79:5c:58:38:be:f6:
         0a:66:70:05:f6:9b:7a:90:4b:52:65:8e:0d:1f:61:a9:f7:1a:
         be:7b:24:34:7c:b0:a0:c1:9d:2b:07:2d:dc:7c:9e:eb:7f:75:
         91:29:f8:ad:bf:5b:1b:7d:b1:1e:70:0c:68:3e:01:2d:cf:c2:
         06:20:62:27:5b:68:f9:a8:d2:f0:f4:8b:55:9c:6c:e1:52:a0:
         24:d3:46:09
-----BEGIN CERTIFICATE-----
MIIEJjCCAw6gAwIBAgIEEAAA4DANBgkqhkiG9w0BAQsFADBEMQswCQYDVQQGEwJE
RTEPMA0GA1UECAwGSGVzc2VuMRQwEgYDVQQKDAtwcml2YWN5aWRlYTEOMAwGA1UE
AwwFQ0EwMDEwHhcNMTcwOTA3MTM0NjE2WhcNMTgwOTA3MTM0NjE2WjBUMQswCQYD
VQQGEwJERTEPMA0GA1UECAwGSGVzc2VuMRQwEgYDVQQKDAtwcml2YWN5aWRlYTEe
MBwGA1UEAwwVcmVxdWVzdGVyLmxvY2FsZG9tYWluMIIBIjANBgkqhkiG9w0BAQEF
AAOCAQ8AMIIBCgKCAQEAzb4UT/rOAT9CIhsdnK/dktJ/22y3PjlDQ2sTA/EF9Ad0
vHZpKAuvGY7X/OPNxljyyn8IbVP8BwJEJMa0NEyMBP4zDkDiILoCc1r39U9jbszG
tt9UHTc5fVE2Jl+93D+oi2uirrad1iHn30G4eigqaEjKqC3t4elGXlpybbSEOIeR
/ZQRCyiExsIvKvsB+TZ6CXXRM4g8c0FbyL+UiXCh8MC5LlBTHrEXZGn0LYHgqQ0O
Mum6VYqF8RtvSXm0f4jDDT5UiJs9HziMBPPuamMr9cbbtIOqxHhBOn1L4cg+ccob
YVnqxsTKMl7J6b8SKebGw2P+oFXaevFgmE0m7fpwLQIDAQABo4IBDjCCAQowCwYD
VR0PBAQDAgWgMAkGA1UdEwQCMAAwEQYJYIZIAYb4QgEBBAQDAgZAMDMGCWCGSAGG
+EIBDQQmFiRPcGVuU1NMIEdlbmVyYXRlZCBTZXJ2ZXIgQ2VydGlmaWNhdGUwHQYD
VR0OBBYEFFM/7V0JB7Nle6tFySRbCXeACpbtMHQGA1UdIwRtMGuAFPSnwMyRRq9k
85HyJ/jIsm+KhzJzoUikRjBEMQswCQYDVQQGEwJERTEPMA0GA1UECAwGSGVzc2Vu
MRQwEgYDVQQKDAtwcml2YWN5aWRlYTEOMAwGA1UEAwwFQ0EwMDGCCQD7yOusg80S
BzATBgNVHSUEDDAKBggrBgEFBQcDATANBgkqhkiG9w0BAQsFAAOCAQEArDV2udcB
raECw7gbgY1Um4CotR+EG1MlNN30mGka+3ovkQUtNiGVpt/bKumonlkvnGWPCOgj
79szS9ZCSo8x64U8lYDkAO0JJXPN1fbsBLSaDxPgumQ0TkCn+P8Kuvu+Zy3C2dD3
unVzeIVjzBoBN4a04Iodknb3Mb4Za56hX3rRf3WaJS5e/be4KTwtqz+sGDqMYtE/
TVPut3WGGe2udF+hD6NBgiN8v14+Jh0xeVxYOL72CmZwBfabepBLUmWODR9hqfca
vnskNHywoMGdKwct3Hye6391kSn4rb9bG32xHnAMaD4BLc/CBiBiJ1to+ajS8PSL
VZxs4VKgJNNGCQ==
-----END CERTIFICATE-----
