Certificate:
    Data:
        Version: 3 (0x2)
        Serial Number: 268435681 (0x100000e1)
    Signature Algorithm: sha256WithRSAEncryption
        Issuer: C=DE, ST=Hessen, O=privacyidea, CN=CA001
        Validity
            Not Before: Sep  7 13:46:17 2017 GMT
            Not After : Sep  7 13:46:17 2018 GMT
        Subject: OU=realm1, CN=cornelius/emailAddress=user@localhost.localdomain
        Subject Public Key Info:
            Public Key Algorithm: rsaEncryption
                Public-Key: (2048 bit)
                Modulus:
                    00:ae:dc:6f:b0:1a:19:0e:c2:61:b0:af:ea:3c:7c:
                    e1:3f:f0:73:98:eb:35:10:d3:d5:b9:db:38:6b:e7:
                    bd:b1:5e:c0:77:b8:fa:74:78:d0:c9:a1:5a:db:10:
                    fd:3d:13:f8:10:20:7c:18:4c:14:27:cf:a0:b8:e5:
                    13:3f:f2:5a:bf:ca:af:36:80:b9:7f:2c:06:29:b2:
                    0a:48:4b:bd:6a:bb:64:66:1c:86:22:7a:d3:14:12:
                    fe:c5:5f:fc:98:12:15:77:ae:de:b0:29:5e:1b:de:
                    b5:64:e9:0f:af:16:6c:6f:be:b4:3c:42:61:41:ee:
                    2b:1d:62:00:49:30:72:8c:4e:3c:9f:fa:79:25:61:
                    d0:f7:3a:55:d1:d6:7a:3c:d8:25:e5:55:52:80:c0:
                    0d:95:0e:ee:3e:36:ed:5b:87:67:6f:06:93:af:8f:
                    45:1d:8b:f2:94:5b:79:af:35:8b:2d:c2:15:fc:5c:
                    96:8e:54:93:d5:80:aa:f0:c1:8e:c3:7a:0f:be:3e:
                    a4:89:fc:ec:c3:0e:23:99:87:75:13:a2:2d:15:6d:
                    72:c5:bb:46:cf:06:d2:9a:f6:af:35:ae:fd:4e:2f:
                    59:57:b9:c4:6f:e9:fa:c1:17:3e:05:e9:db:69:1f:
                    7a:0c:77:be:2f:32:51:7d:16:bf:48:3d:3b:4f:ed:
                    8a:ed
                Exponent: 65537 (0x10001)
        X509v3 extensions:
            X509v3 Key Usage: 
                Digital Signature, Key Encipherment
            X509v3 Basic Constraints: 
                CA:FALSE
            Netscape Cert Type: 
                SSL Server
            Netscape Comment: 
                OpenSSL Generated Server Certificate
            X509v3 Subject Key Identifier: 
                90:A9:86:5C:21:2D:7B:4B:E4:AF:C4:9A:D4:D6:72:55:D7:67:C3:00
            X509v3 Authority Key Identifier: 
                keyid:F4:A7:C0:CC:91:46:AF:64:F3:91:F2:27:F8:C8:B2:6F:8A:87:32:73
                DirName:/C=DE/ST=Hessen/O=privacyidea/CN=CA001
                serial:FB:C8:EB:AC:83:CD:12:07

            X509v3 Extended Key Usage: 
                TLS Web Server Authentication
    Signature Algorithm: sha256WithRSAEncryption
         aa:2c:bf:9c:f4:be:73:54:87:88:96:3c:ef:ed:40:74:af:d4:
         20:3b:df:65:db:ad:a4:ba:ea:7a:1d:46:11:5c:2b:c6:c5:c7:
         78:1f:5b:5e:bc:c4:1e:f8:51:7f:5b:2a:27:3b:91:5e:74:06:
         98:6c:fe:4c:e4:07:0c:36:e6:2b:d1:2e:7e:d5:03:cd:21:e3:
         df:34:19:19:61:83:3d:82:af:ba:6d:f0:ab:f0:a2:d7:61:fc:
         86:89:3b:e2:3e:d3:7b:eb:a3:eb:7a:24:c3:49:0e:68:c4:aa:
         f1:f6:1f:ef:13:27:42:27:bd:e7:d2:9e:a5:93:ae:84:83:d6:
         d3:06:16:fe:c3:47:70:55:af:c4:58:02:cc:19:ae:35:c6:1b:
         87:26:e7:42:4e:0f:f2:a3:98:d6:bb:1b:28:bf:e9:23:4f:ed:
         97:d0:f5:e3:88:c1:da:f2:09:9f:e9:bc:0e:e7:f6:b7:07:af:
         36:00:a8:20:4c:a6:04:62:3c:6b:8d:f1:74:58:a1:e1:37:4e:
         61:79:82:a4:a9:e9:f8:ff:41:2b:b2:a0:8f:9b:d0:b1:0e:56:
         ad:66:32:e2:0d:0f:a6:78:be:8b:b7:ab:97:c8:25:04:83:9d:
         ad:19:d9:6c:28:08:39:81:f6:80:e8:8c:e1:3f:49:b0:f3:b8:
         1e:85:44:d7
-----BEGIN CERTIFICATE-----
MIIEIjCCAwqgAwIBAgIEEAAA4TANBgkqhkiG9w0BAQsFADBEMQswCQYDVQQGEwJE
RTEPMA0GA1UECAwGSGVzc2VuMRQwEgYDVQQKDAtwcml2YWN5aWRlYTEOMAwGA1UE
AwwFQ0EwMDEwHhcNMTcwOTA3MTM0NjE3WhcNMTgwOTA3MTM0NjE3WjBQMQ8wDQYD
VQQLDAZyZWFsbTExEjAQBgNVBAMMCWNvcm5lbGl1czEpMCcGCSqGSIb3DQEJARYa
dXNlckBsb2NhbGhvc3QubG9jYWxkb21haW4wggEiMA0GCSqGSIb3DQEBAQUAA4IB
DwAwggEKAoIBAQCu3G+wGhkOwmGwr+o8fOE/8HOY6zUQ09W52zhr572xXsB3uPp0
eNDJoVrbEP09E/gQIHwYTBQnz6C45RM/8lq/yq82gLl/LAYpsgpIS71qu2RmHIYi
etMUEv7FX/yYEhV3rt6wKV4b3rVk6Q+vFmxvvrQ8QmFB7isdYgBJMHKMTjyf+nkl
YdD3OlXR1no82CXlVVKAwA2VDu4+Nu1bh2dvBpOvj0Udi/KUW3mvNYstwhX8XJaO
VJPVgKrwwY7Deg++PqSJ/OzDDiOZh3UToi0VbXLFu0bPBtKa9q81rv1OL1lXucRv
6frBFz4F6dtpH3oMd74vMlF9Fr9IPTtP7YrtAgMBAAGjggEOMIIBCjALBgNVHQ8E
BAMCBaAwCQYDVR0TBAIwADARBglghkgBhvhCAQEEBAMCBkAwMwYJYIZIAYb4QgEN
BCYWJE9wZW5TU0wgR2VuZXJhdGVkIFNlcnZlciBDZXJ0aWZpY2F0ZTAdBgNVHQ4E
FgQUkKmGXCEte0vkr8Sa1NZyVddnwwAwdAYDVR0jBG0wa4AU9KfAzJFGr2TzkfIn
+Miyb4qHMnOhSKRGMEQxCzAJBgNVBAYTAkRFMQ8wDQYDVQQIDAZIZXNzZW4xFDAS
BgNVBAoMC3ByaXZhY3lpZGVhMQ4wDAYDVQQDDAVDQTAwMYIJAPvI66yDzRIHMBMG
A1UdJQQMMAoGCCsGAQUFBwMBMA0GCSqGSIb3DQEBCwUAA4IBAQCqLL+c9L5zVIeI
ljzv7UB0r9QgO99l262kuup6HUYRXCvGxcd4H1tevMQe+FF/WyonO5FedAaYbP5M
5AcMNuYr0S5+1QPNIePfNBkZYYM9gq+6bfCr8KLXYfyGiTviPtN766PreiTDSQ5o
xKrx9h/vEydCJ73n0p6lk66Eg9bTBhb+w0dwVa/EWALMGa41xhuHJudCTg/yo5jW
uxsov+kjT+2X0PXjiMHa8gmf6bwO5/a3B682AKggTKYEYjxrjfF0WKHhN05heYKk
qen4/0ErsqCPm9CxDlatZjLiDQ+meL6Lt6uXyCUEg52tGdlsKAg5gfaA6IzhP0mw
87gehUTX
-----END CERTIFICATE-----
