Certificate:
    Data:
        Version: 3 (0x2)
        Serial Number: 268435675 (0x100000db)
    Signature Algorithm: sha256WithRSAEncryption
        Issuer: C=DE, ST=Hessen, O=privacyidea, CN=CA001
        Validity
            Not Before: Dec  5 08:09:43 2017 GMT
            Not After : Dec  5 08:09:43 2018 GMT
        Subject: CN=Steve Test/emailAddress=steve@openssl.org
        Subject Public Key Info:
            Public Key Algorithm: rsaEncryption
                Public-Key: (2048 bit)
                Modulus:
                    00:d2:81:89:20:51:48:0f:73:f4:11:32:24:d5:1f:
                    1c:fd:5c:f5:b6:e6:c5:f0:52:81:dc:d2:af:66:4a:
                    7c:93:31:61:5c:af:d1:6d:06:70:03:60:7c:72:0c:
                    88:dd:49:cd:9e:02:6c:d2:5a:d7:53:0f:f3:da:be:
                    69:64:b5:0f:0c:00:e3:b3:50:47:a3:b3:9b:ba:13:
                    50:d6:58:5a:4b:ab:39:e0:11:ca:0a:27:67:03:78:
                    22:66:6d:92:1e:1b:5c:49:ae:e6:6b:d1:8e:3b:9d:
                    06:d3:c6:ac:4d:53:43:10:ab:e8:96:c1:87:82:97:
                    99:8f:20:d3:99:12:37:31:84:e1:8a:ff:29:03:5f:
                    22:90:3e:7f:9b:e0:20:c1:ad:dc:ae:4c:39:1a:31:
                    96:17:02:8c:b2:d9:b4:0d:20:12:9b:7d:86:54:fd:
                    33:fd:c1:2a:62:46:f8:60:96:cf:6e:01:6f:22:df:
                    13:47:e7:97:ec:05:72:23:a3:62:f8:fa:ef:ac:9c:
                    72:f0:37:cb:2f:37:cf:90:a8:27:51:86:c6:d7:78:
                    08:8f:7e:25:a2:15:70:a2:fb:1c:b6:15:5e:a0:97:
                    8b:81:4c:09:28:8a:27:3b:94:bc:71:db:5b:71:37:
                    9a:2b:16:e0:6f:b5:c9:f5:4b:4f:20:ba:65:cf:af:
                    ad:ad
                Exponent: 65537 (0x10001)
        X509v3 extensions:
            X509v3 Key Usage: 
                Digital Signature, Key Encipherment
            X509v3 Basic Constraints: 
                CA:FALSE
            Netscape Cert Type: 
                SSL Server
            Netscape Comment: 
                OpenSSL Generated Server Certificate
            X509v3 Subject Key Identifier: 
                E5:25:6D:3E:AF:0D:DD:3F:4C:F2:45:19:39:D5:14:DB:7E:9C:C0:AD
            X509v3 Authority Key Identifier: 
                keyid:F4:A7:C0:CC:91:46:AF:64:F3:91:F2:27:F8:C8:B2:6F:8A:87:32:73
                DirName:/C=DE/ST=Hessen/O=privacyidea/CN=CA001
                serial:FB:C8:EB:AC:83:CD:12:07

            X509v3 Extended Key Usage: 
                TLS Web Server Authentication
    Signature Algorithm: sha256WithRSAEncryption
         38:8f:fb:c5:bd:34:9d:06:c1:46:bf:a3:d6:71:9a:60:2c:fe:
         3a:18:ab:c6:39:ef:78:66:1b:75:33:99:be:ca:c9:7d:39:4f:
         a3:3c:a9:6c:13:29:74:3d:6c:55:e1:fc:0f:da:7b:94:1b:1b:
         01:d6:25:27:98:91:fa:77:cd:ba:c8:53:85:38:27:5b:a8:8f:
         80:ba:18:07:13:38:5b:f9:73:5e:08:b6:82:dd:4e:b0:9d:96:
         62:2a:f0:e4:45:89:b5:ab:e4:ce:e1:f2:d7:5b:ad:0d:1b:51:
         35:33:87:ec:6e:5d:df:dd:e6:4d:bb:6a:d3:88:6b:8a:25:a2:
         bc:83:30:34:8e:cb:08:d2:c9:92:d0:b3:0f:2c:bd:e8:68:66:
         3f:b3:1b:8a:6d:64:ee:80:4c:7c:6e:d8:8d:b5:98:7e:c5:a9:
         e1:ce:8c:1d:a4:b1:a5:07:4a:10:52:ae:b6:3f:29:b5:16:0a:
         0d:2e:d5:07:2e:fd:e7:a4:ae:64:33:76:0b:92:6c:db:f4:56:
         5a:00:bc:7b:7d:8f:e9:79:39:52:db:6c:04:92:7c:08:ae:3d:
         22:a6:1c:8b:61:e9:73:2e:6b:fb:15:a3:34:8d:bc:2c:cd:84:
         ba:d4:75:2b:7f:5f:83:6e:db:3d:3d:78:15:4b:88:ec:5d:29:
         ff:80:8f:12
-----BEGIN CERTIFICATE-----
MIIECTCCAvGgAwIBAgIEEAAA2zANBgkqhkiG9w0BAQsFADBEMQswCQYDVQQGEwJE
RTEPMA0GA1UECAwGSGVzc2VuMRQwEgYDVQQKDAtwcml2YWN5aWRlYTEOMAwGA1UE
AwwFQ0EwMDEwHhcNMTcxMjA1MDgwOTQzWhcNMTgxMjA1MDgwOTQzWjA3MRMwEQYD
VQQDDApTdGV2ZSBUZXN0MSAwHgYJKoZIhvcNAQkBFhFzdGV2ZUBvcGVuc3NsLm9y
ZzCCASIwDQYJKoZIhvcNAQEBBQADggEPADCCAQoCggEBANKBiSBRSA9z9BEyJNUf
HP1c9bbmxfBSgdzSr2ZKfJMxYVyv0W0GcANgfHIMiN1JzZ4CbNJa11MP89q+aWS1
DwwA47NQR6Ozm7oTUNZYWkurOeARygonZwN4ImZtkh4bXEmu5mvRjjudBtPGrE1T
QxCr6JbBh4KXmY8g05kSNzGE4Yr/KQNfIpA+f5vgIMGt3K5MORoxlhcCjLLZtA0g
Ept9hlT9M/3BKmJG+GCWz24BbyLfE0fnl+wFciOjYvj676yccvA3yy83z5CoJ1GG
xtd4CI9+JaIVcKL7HLYVXqCXi4FMCSiKJzuUvHHbW3E3misW4G+1yfVLTyC6Zc+v
ra0CAwEAAaOCAQ4wggEKMAsGA1UdDwQEAwIFoDAJBgNVHRMEAjAAMBEGCWCGSAGG
+EIBAQQEAwIGQDAzBglghkgBhvhCAQ0EJhYkT3BlblNTTCBHZW5lcmF0ZWQgU2Vy
dmVyIENlcnRpZmljYXRlMB0GA1UdDgQWBBTlJW0+rw3dP0zyRRk51RTbfpzArTB0
BgNVHSMEbTBrgBT0p8DMkUavZPOR8if4yLJviocyc6FIpEYwRDELMAkGA1UEBhMC
REUxDzANBgNVBAgMBkhlc3NlbjEUMBIGA1UECgwLcHJpdmFjeWlkZWExDjAMBgNV
BAMMBUNBMDAxggkA+8jrrIPNEgcwEwYDVR0lBAwwCgYIKwYBBQUHAwEwDQYJKoZI
hvcNAQELBQADggEBADiP+8W9NJ0GwUa/o9ZxmmAs/joYq8Y573hmG3Uzmb7KyX05
T6M8qWwTKXQ9bFXh/A/ae5QbGwHWJSeYkfp3zbrIU4U4J1uoj4C6GAcTOFv5c14I
toLdTrCdlmIq8ORFibWr5M7h8tdbrQ0bUTUzh+xuXd/d5k27atOIa4oloryDMDSO
ywjSyZLQsw8svehoZj+zG4ptZO6ATHxu2I21mH7FqeHOjB2ksaUHShBSrrY/KbUW
Cg0u1Qcu/eekrmQzdguSbNv0VloAvHt9j+l5OVLbbASSfAiuPSKmHIth6XMua/sV
ozSNvCzNhLrUdSt/X4Nu2z09eBVLiOxdKf+AjxI=
-----END CERTIFICATE-----
