Certificate:
    Data:
        Version: 3 (0x2)
        Serial Number: 268435668 (0x100000d4)
    Signature Algorithm: sha256WithRSAEncryption
        Issuer: C=DE, ST=Hessen, O=privacyidea, CN=CA001
        Validity
            Not Before: Jan  8 12:11:07 2018 GMT
            Not After : Jan 28 12:11:07 2020 GMT
        Subject: CN=Steve Test/emailAddress=steve@openssl.org
        Subject Public Key Info:
            Public Key Algorithm: rsaEncryption
                Public-Key: (2048 bit)
                Modulus:
                    00:d2:81:89:20:51:48:0f:73:f4:11:32:24:d5:1f:
                    1c:fd:5c:f5:b6:e6:c5:f0:52:81:dc:d2:af:66:4a:
                    7c:93:31:61:5c:af:d1:6d:06:70:03:60:7c:72:0c:
                    88:dd:49:cd:9e:02:6c:d2:5a:d7:53:0f:f3:da:be:
                    69:64:b5:0f:0c:00:e3:b3:50:47:a3:b3:9b:ba:13:
                    50:d6:58:5a:4b:ab:39:e0:11:ca:0a:27:67:03:78:
                    22:66:6d:92:1e:1b:5c:49:ae:e6:6b:d1:8e:3b:9d:
                    06:d3:c6:ac:4d:53:43:10:ab:e8:96:c1:87:82:97:
                    99:8f:20:d3:99:12:37:31:84:e1:8a:ff:29:03:5f:
                    22:90:3e:7f:9b:e0:20:c1:ad:dc:ae:4c:39:1a:31:
                    96:17:02:8c:b2:d9:b4:0d:20:12:9b:7d:86:54:fd:
                    33:fd:c1:2a:62:46:f8:60:96:cf:6e:01:6f:22:df:
                    13:47:e7:97:ec:05:72:23:a3:62:f8:fa:ef:ac:9c:
                    72:f0:37:cb:2f:37:cf:90:a8:27:51:86:c6:d7:78:
                    08:8f:7e:25:a2:15:70:a2:fb:1c:b6:15:5e:a0:97:
                    8b:81:4c:09:28:8a:27:3b:94:bc:71:db:5b:71:37:
                    9a:2b:16:e0:6f:b5:c9:f5:4b:4f:20:ba:65:cf:af:
                    ad:ad
                Exponent: 65537 (0x10001)
        X509v3 extensions:
            X509v3 Key Usage: 
                Digital Signature, Key Encipherment
            X509v3 Basic Constraints: 
                CA:FALSE
            Netscape Cert Type: 
                SSL Server
            Netscape Comment: 
                OpenSSL Generated Server Certificate
            X509v3 Subject Key Identifier: 
                E5:25:6D:3E:AF:0D:DD:3F:4C:F2:45:19:39:D5:14:DB:7E:9C:C0:AD
            X509v3 Authority Key Identifier: 
                keyid:F4:A7:C0:CC:91:46:AF:64:F3:91:F2:27:F8:C8:B2:6F:8A:87:32:73
                DirName:/C=DE/ST=Hessen/O=privacyidea/CN=CA001
                serial:FB:C8:EB:AC:83:CD:12:07

            X509v3 Extended Key Usage: 
                TLS Web Server Authentication
    Signature Algorithm: sha256WithRSAEncryption
         27:60:8e:10:7d:a5:9c:df:8a:ca:17:1d:61:27:2a:97:d4:de:
         d4:72:99:73:a3:2e:47:81:0d:3b:c0:84:c4:57:1d:95:70:b1:
         c8:57:38:35:c7:1a:06:83:48:6a:17:87:55:f3:57:68:9f:06:
         b7:4d:52:01:e1:68:9e:6f:b4:cb:43:9b:7c:86:bc:86:08:89:
         14:a0:9a:40:b7:c3:e8:07:33:86:14:7a:b2:d8:08:6a:05:45:
         3a:fb:c7:69:77:ec:71:f9:a4:b4:b9:17:d6:d2:30:ed:91:14:
         64:36:df:68:fe:19:77:c4:b2:e1:49:55:2e:6b:03:94:9d:3d:
         ce:b2:85:f5:ad:86:88:d8:c0:e5:c2:75:2e:ac:a6:7f:15:3c:
         dd:1d:fe:78:fb:e1:83:75:d9:0a:86:1e:20:b3:7a:78:69:bd:
         6b:44:18:93:54:8b:ec:b2:47:ee:a7:f0:a2:7b:e4:7f:f5:a1:
         91:95:0b:56:fc:54:c4:2d:8d:b4:08:bd:e4:ae:dc:bf:ac:69:
         f8:55:78:88:07:7b:a1:a4:6e:a2:06:bc:b0:9d:fc:ec:a8:67:
         f4:2e:bb:7f:70:40:ae:bb:92:18:d5:0f:71:5a:ed:ee:46:ae:
         48:7f:af:11:46:db:79:fd:ab:b8:dc:ae:18:7b:6e:9d:f6:bd:
         63:e2:59:ac
-----BEGIN CERTIFICATE-----
MIIECTCCAvGgAwIBAgIEEAAA1DANBgkqhkiG9w0BAQsFADBEMQswCQYDVQQGEwJE
RTEPMA0GA1UECAwGSGVzc2VuMRQwEgYDVQQKDAtwcml2YWN5aWRlYTEOMAwGA1UE
AwwFQ0EwMDEwHhcNMTgwMTA4MTIxMTA3WhcNMjAwMTI4MTIxMTA3WjA3MRMwEQYD
VQQDDApTdGV2ZSBUZXN0MSAwHgYJKoZIhvcNAQkBFhFzdGV2ZUBvcGVuc3NsLm9y
ZzCCASIwDQYJKoZIhvcNAQEBBQADggEPADCCAQoCggEBANKBiSBRSA9z9BEyJNUf
HP1c9bbmxfBSgdzSr2ZKfJMxYVyv0W0GcANgfHIMiN1JzZ4CbNJa11MP89q+aWS1
DwwA47NQR6Ozm7oTUNZYWkurOeARygonZwN4ImZtkh4bXEmu5mvRjjudBtPGrE1T
QxCr6JbBh4KXmY8g05kSNzGE4Yr/KQNfIpA+f5vgIMGt3K5MORoxlhcCjLLZtA0g
Ept9hlT9M/3BKmJG+GCWz24BbyLfE0fnl+wFciOjYvj676yccvA3yy83z5CoJ1GG
xtd4CI9+JaIVcKL7HLYVXqCXi4FMCSiKJzuUvHHbW3E3misW4G+1yfVLTyC6Zc+v
ra0CAwEAAaOCAQ4wggEKMAsGA1UdDwQEAwIFoDAJBgNVHRMEAjAAMBEGCWCGSAGG
+EIBAQQEAwIGQDAzBglghkgBhvhCAQ0EJhYkT3BlblNTTCBHZW5lcmF0ZWQgU2Vy
dmVyIENlcnRpZmljYXRlMB0GA1UdDgQWBBTlJW0+rw3dP0zyRRk51RTbfpzArTB0
BgNVHSMEbTBrgBT0p8DMkUavZPOR8if4yLJviocyc6FIpEYwRDELMAkGA1UEBhMC
REUxDzANBgNVBAgMBkhlc3NlbjEUMBIGA1UECgwLcHJpdmFjeWlkZWExDjAMBgNV
BAMMBUNBMDAxggkA+8jrrIPNEgcwEwYDVR0lBAwwCgYIKwYBBQUHAwEwDQYJKoZI
hvcNAQELBQADggEBACdgjhB9pZzfisoXHWEnKpfU3tRymXOjLkeBDTvAhMRXHZVw
schXODXHGgaDSGoXh1XzV2ifBrdNUgHhaJ5vtMtDm3yGvIYIiRSgmkC3w+gHM4YU
erLYCGoFRTr7x2l37HH5pLS5F9bSMO2RFGQ232j+GXfEsuFJVS5rA5SdPc6yhfWt
hojYwOXCdS6spn8VPN0d/nj74YN12QqGHiCzenhpvWtEGJNUi+yyR+6n8KJ75H/1
oZGVC1b8VMQtjbQIveSu3L+safhVeIgHe6GkbqIGvLCd/OyoZ/Quu39wQK67khjV
D3Fa7e5Grkh/rxFG23n9q7jcrhh7bp32vWPiWaw=
-----END CERTIFICATE-----
