Certificate:
    Data:
        Version: 3 (0x2)
        Serial Number: 268435672 (0x100000d8)
    Signature Algorithm: sha256WithRSAEncryption
        Issuer: C=DE, ST=Hessen, O=privacyidea, CN=CA001
        Validity
            Not Before: Dec  5 08:07:41 2017 GMT
            Not After : Dec  5 08:07:41 2018 GMT
        Subject: C=DE, ST=Hessen, O=privacyidea, CN=requester.localdomain
        Subject Public Key Info:
            Public Key Algorithm: rsaEncryption
                Public-Key: (2048 bit)
                Modulus:
                    00:cd:be:14:4f:fa:ce:01:3f:42:22:1b:1d:9c:af:
                    dd:92:d2:7f:db:6c:b7:3e:39:43:43:6b:13:03:f1:
                    05:f4:07:74:bc:76:69:28:0b:af:19:8e:d7:fc:e3:
                    cd:c6:58:f2:ca:7f:08:6d:53:fc:07:02:44:24:c6:
                    b4:34:4c:8c:04:fe:33:0e:40:e2:20:ba:02:73:5a:
                    f7:f5:4f:63:6e:cc:c6:b6:df:54:1d:37:39:7d:51:
                    36:26:5f:bd:dc:3f:a8:8b:6b:a2:ae:b6:9d:d6:21:
                    e7:df:41:b8:7a:28:2a:68:48:ca:a8:2d:ed:e1:e9:
                    46:5e:5a:72:6d:b4:84:38:87:91:fd:94:11:0b:28:
                    84:c6:c2:2f:2a:fb:01:f9:36:7a:09:75:d1:33:88:
                    3c:73:41:5b:c8:bf:94:89:70:a1:f0:c0:b9:2e:50:
                    53:1e:b1:17:64:69:f4:2d:81:e0:a9:0d:0e:32:e9:
                    ba:55:8a:85:f1:1b:6f:49:79:b4:7f:88:c3:0d:3e:
                    54:88:9b:3d:1f:38:8c:04:f3:ee:6a:63:2b:f5:c6:
                    db:b4:83:aa:c4:78:41:3a:7d:4b:e1:c8:3e:71:ca:
                    1b:61:59:ea:c6:c4:ca:32:5e:c9:e9:bf:12:29:e6:
                    c6:c3:63:fe:a0:55:da:7a:f1:60:98:4d:26:ed:fa:
                    70:2d
                Exponent: 65537 (0x10001)
        X509v3 extensions:
            X509v3 Key Usage: 
                Digital Signature, Key Encipherment
            X509v3 Basic Constraints: 
                CA:FALSE
            Netscape Cert Type: 
                SSL Server
            Netscape Comment: 
                OpenSSL Generated Server Certificate
            X509v3 Subject Key Identifier: 
                53:3F:ED:5D:09:07:B3:65:7B:AB:45:C9:24:5B:09:77:80:0A:96:ED
            X509v3 Authority Key Identifier: 
                keyid:F4:A7:C0:CC:91:46:AF:64:F3:91:F2:27:F8:C8:B2:6F:8A:87:32:73
                DirName:/C=DE/ST=Hessen/O=privacyidea/CN=CA001
                serial:FB:C8:EB:AC:83:CD:12:07

            X509v3 Extended Key Usage: 
                TLS Web Server Authentication
    Signature Algorithm: sha256WithRSAEncryption
         2b:b3:64:a4:54:1b:c0:c0:36:bd:d7:e5:c9:14:45:ef:69:51:
         cc:8d:b4:29:5c:5d:d8:d0:92:e7:1a:1d:1b:9e:ab:a9:60:7b:
         2a:bd:3b:d0:0a:f0:7c:f3:28:ba:82:96:8e:fe:51:d3:53:61:
         b2:03:7f:93:5b:11:5a:32:1e:46:4e:10:19:ae:50:eb:6f:f8:
         69:10:37:88:97:3e:ec:99:ce:12:54:a2:1a:8a:71:75:7a:b1:
         10:10:6c:d4:ac:aa:47:45:81:71:cf:4e:07:fc:5b:3b:d1:80:
         bd:80:76:5e:eb:87:9c:3e:6d:85:5b:67:84:0c:74:d9:4b:15:
         91:18:35:0a:cf:d1:fa:e3:39:fe:ff:85:34:61:7a:be:eb:c6:
         b0:27:53:e5:53:76:fd:0e:ad:1f:e1:54:32:4d:7c:7e:88:fa:
         0a:dc:cb:87:37:e2:f1:f6:f4:66:71:fd:77:88:99:61:64:d2:
         50:58:40:53:c5:9b:81:a1:81:c3:fa:42:5a:a3:e0:76:0e:55:
         2f:f0:eb:a6:02:5b:58:25:45:0d:5d:61:1d:b2:85:65:d8:d1:
         4a:83:92:ee:49:4e:71:1c:ae:7c:d4:40:a3:5a:c0:21:44:6e:
         61:e0:7a:e8:85:35:1f:dd:46:b3:93:3d:5a:28:24:74:54:df:
         20:da:96:35
-----BEGIN CERTIFICATE-----
MIIEJjCCAw6gAwIBAgIEEAAA2DANBgkqhkiG9w0BAQsFADBEMQswCQYDVQQGEwJE
RTEPMA0GA1UECAwGSGVzc2VuMRQwEgYDVQQKDAtwcml2YWN5aWRlYTEOMAwGA1UE
AwwFQ0EwMDEwHhcNMTcxMjA1MDgwNzQxWhcNMTgxMjA1MDgwNzQxWjBUMQswCQYD
VQQGEwJERTEPMA0GA1UECAwGSGVzc2VuMRQwEgYDVQQKDAtwcml2YWN5aWRlYTEe
MBwGA1UEAwwVcmVxdWVzdGVyLmxvY2FsZG9tYWluMIIBIjANBgkqhkiG9w0BAQEF
AAOCAQ8AMIIBCgKCAQEAzb4UT/rOAT9CIhsdnK/dktJ/22y3PjlDQ2sTA/EF9Ad0
vHZpKAuvGY7X/OPNxljyyn8IbVP8BwJEJMa0NEyMBP4zDkDiILoCc1r39U9jbszG
tt9UHTc5fVE2Jl+93D+oi2uirrad1iHn30G4eigqaEjKqC3t4elGXlpybbSEOIeR
/ZQRCyiExsIvKvsB+TZ6CXXRM4g8c0FbyL+UiXCh8MC5LlBTHrEXZGn0LYHgqQ0O
Mum6VYqF8RtvSXm0f4jDDT5UiJs9HziMBPPuamMr9cbbtIOqxHhBOn1L4cg+ccob
YVnqxsTKMl7J6b8SKebGw2P+oFXaevFgmE0m7fpwLQIDAQABo4IBDjCCAQowCwYD
VR0PBAQDAgWgMAkGA1UdEwQCMAAwEQYJYIZIAYb4QgEBBAQDAgZAMDMGCWCGSAGG
+EIBDQQmFiRPcGVuU1NMIEdlbmVyYXRlZCBTZXJ2ZXIgQ2VydGlmaWNhdGUwHQYD
VR0OBBYEFFM/7V0JB7Nle6tFySRbCXeACpbtMHQGA1UdIwRtMGuAFPSnwMyRRq9k
85HyJ/jIsm+KhzJzoUikRjBEMQswCQYDVQQGEwJERTEPMA0GA1UECAwGSGVzc2Vu
MRQwEgYDVQQKDAtwcml2YWN5aWRlYTEOMAwGA1UEAwwFQ0EwMDGCCQD7yOusg80S
BzATBgNVHSUEDDAKBggrBgEFBQcDATANBgkqhkiG9w0BAQsFAAOCAQEAK7NkpFQb
wMA2vdflyRRF72lRzI20KVxd2NCS5xodG56rqWB7Kr070ArwfPMouoKWjv5R01Nh
sgN/k1sRWjIeRk4QGa5Q62/4aRA3iJc+7JnOElSiGopxdXqxEBBs1KyqR0WBcc9O
B/xbO9GAvYB2XuuHnD5thVtnhAx02UsVkRg1Cs/R+uM5/v+FNGF6vuvGsCdT5VN2
/Q6tH+FUMk18foj6CtzLhzfi8fb0ZnH9d4iZYWTSUFhAU8WbgaGBw/pCWqPgdg5V
L/DrpgJbWCVFDV1hHbKFZdjRSoOS7klOcRyufNRAo1rAIURuYeB66IU1H91Gs5M9
WigkdFTfINqWNQ==
-----END CERTIFICATE-----
