Certificate:
    Data:
        Version: 3 (0x2)
        Serial Number: 268435671 (0x100000d7)
    Signature Algorithm: sha256WithRSAEncryption
        Issuer: C=DE, ST=Hessen, O=privacyidea, CN=CA001
        Validity
            Not Before: Jan  8 12:22:58 2018 GMT
            Not After : Jan  8 12:22:58 2019 GMT
        Subject: CN=selfservice,CN=user,O=realm1/emailAddress=meine
        Subject Public Key Info:
            Public Key Algorithm: rsaEncryption
                Public-Key: (2048 bit)
                Modulus:
                    00:cf:3c:d4:33:0e:12:c4:e6:da:cd:b6:56:a1:1c:
                    26:bb:26:1c:8a:4a:73:a8:58:8a:b6:1e:b3:8b:99:
                    d2:1d:07:c2:92:89:79:c0:69:d8:c8:df:28:61:98:
                    1e:b3:fe:ae:2b:bd:78:a9:f7:6e:47:dc:a3:a0:16:
                    8c:85:02:c1:4e:92:fd:72:6e:f0:c8:03:29:9b:b8:
                    00:6e:c0:83:95:c8:34:20:36:9c:b3:e5:e4:e6:76:
                    73:a3:1a:ad:40:96:e0:53:54:00:ec:76:79:9a:c6:
                    0d:7e:b6:bd:29:ec:83:f3:cb:89:a4:cb:6c:00:ba:
                    0c:c5:78:0f:ff:69:b8:94:f4:04:70:43:3f:d8:9e:
                    d7:a7:fb:5d:ce:75:8e:da:e7:c4:07:b1:9d:de:6f:
                    88:4b:b6:4d:9a:cf:f9:bc:fa:9f:cd:32:6d:f6:3a:
                    0b:0d:23:42:78:ec:97:42:bf:0e:4d:60:56:e1:d3:
                    02:f2:19:cb:84:57:90:e5:70:a1:a2:83:35:86:e2:
                    da:86:9f:f9:8a:c4:79:b3:52:28:da:cb:bb:34:ca:
                    d3:da:91:4a:cf:8d:76:a2:b2:6b:9b:f9:96:fd:09:
                    2a:da:11:23:4d:f0:cb:d6:b2:b1:0e:12:6c:9a:19:
                    65:98:87:ca:e4:ee:24:ce:44:ac:90:8f:9d:1b:c5:
                    2a:9d
                Exponent: 65537 (0x10001)
        X509v3 extensions:
            X509v3 Key Usage: 
                Digital Signature, Key Encipherment
            X509v3 Basic Constraints: 
                CA:FALSE
            Netscape Cert Type: 
                SSL Server
            Netscape Comment: 
                OpenSSL Generated Server Certificate
            X509v3 Subject Key Identifier: 
                4D:07:90:AD:FF:1D:0D:E7:1A:DD:D6:2E:FA:BA:34:CB:AA:1F:24:C6
            X509v3 Authority Key Identifier: 
                keyid:F4:A7:C0:CC:91:46:AF:64:F3:91:F2:27:F8:C8:B2:6F:8A:87:32:73
                DirName:/C=DE/ST=Hessen/O=privacyidea/CN=CA001
                serial:FB:C8:EB:AC:83:CD:12:07

            X509v3 Extended Key Usage: 
                TLS Web Server Authentication
    Signature Algorithm: sha256WithRSAEncryption
         7a:b7:14:ff:29:3f:40:d0:c2:1d:19:63:6a:74:9c:6a:95:aa:
         14:e3:79:bc:ce:b8:d5:86:c7:67:e9:b8:20:e2:c1:a1:8f:05:
         28:7a:84:fe:84:0c:eb:38:9a:b0:77:7d:56:e7:05:fb:49:72:
         36:7b:05:b9:bb:2b:0c:ad:5a:3a:29:6b:67:f3:4a:63:ab:43:
         04:d5:d4:0c:4a:d2:c8:3b:7e:d0:bc:df:1d:6b:3d:06:c5:86:
         a9:a0:db:e4:d5:cc:49:a5:c8:82:b3:f1:67:b4:3d:73:ac:e0:
         f8:de:e0:fc:3d:51:36:ee:dc:30:b0:65:18:1d:a0:58:69:ae:
         7c:b6:f7:28:7c:0b:2e:65:e8:0c:a8:60:34:6f:88:75:fc:1c:
         3c:b5:d9:d6:05:40:21:45:e6:77:00:25:0a:26:13:4c:21:2d:
         a8:ea:27:9b:c3:7f:71:59:7d:44:6f:e5:06:64:33:e4:ff:01:
         1b:69:52:99:8a:2b:16:05:12:a0:63:50:dd:57:e7:1c:e2:4d:
         87:97:76:ab:76:91:07:5d:fa:a9:4d:7a:bc:21:bb:28:bb:71:
         f8:54:85:80:f2:27:20:6f:d1:3f:0d:82:84:ba:2e:63:53:d6:
         15:3e:6a:20:24:ec:86:41:10:83:9a:79:54:f3:fd:eb:3a:be:
         23:98:c4:b0
-----BEGIN CERTIFICATE-----
MIIEDzCCAvegAwIBAgIEEAAA1zANBgkqhkiG9w0BAQsFADBEMQswCQYDVQQGEwJE
RTEPMA0GA1UECAwGSGVzc2VuMRQwEgYDVQQKDAtwcml2YWN5aWRlYTEOMAwGA1UE
AwwFQ0EwMDEwHhcNMTgwMTA4MTIyMjU4WhcNMTkwMTA4MTIyMjU4WjA9MSUwIwYD
VQQDDBxzZWxmc2VydmljZSxDTj11c2VyLE89cmVhbG0xMRQwEgYJKoZIhvcNAQkB
FgVtZWluZTCCASIwDQYJKoZIhvcNAQEBBQADggEPADCCAQoCggEBAM881DMOEsTm
2s22VqEcJrsmHIpKc6hYirYes4uZ0h0HwpKJecBp2MjfKGGYHrP+riu9eKn3bkfc
o6AWjIUCwU6S/XJu8MgDKZu4AG7Ag5XINCA2nLPl5OZ2c6MarUCW4FNUAOx2eZrG
DX62vSnsg/PLiaTLbAC6DMV4D/9puJT0BHBDP9ie16f7Xc51jtrnxAexnd5viEu2
TZrP+bz6n80ybfY6Cw0jQnjsl0K/Dk1gVuHTAvIZy4RXkOVwoaKDNYbi2oaf+YrE
ebNSKNrLuzTK09qRSs+NdqKya5v5lv0JKtoRI03wy9aysQ4SbJoZZZiHyuTuJM5E
rJCPnRvFKp0CAwEAAaOCAQ4wggEKMAsGA1UdDwQEAwIFoDAJBgNVHRMEAjAAMBEG
CWCGSAGG+EIBAQQEAwIGQDAzBglghkgBhvhCAQ0EJhYkT3BlblNTTCBHZW5lcmF0
ZWQgU2VydmVyIENlcnRpZmljYXRlMB0GA1UdDgQWBBRNB5Ct/x0N5xrd1i76ujTL
qh8kxjB0BgNVHSMEbTBrgBT0p8DMkUavZPOR8if4yLJviocyc6FIpEYwRDELMAkG
A1UEBhMCREUxDzANBgNVBAgMBkhlc3NlbjEUMBIGA1UECgwLcHJpdmFjeWlkZWEx
DjAMBgNVBAMMBUNBMDAxggkA+8jrrIPNEgcwEwYDVR0lBAwwCgYIKwYBBQUHAwEw
DQYJKoZIhvcNAQELBQADggEBAHq3FP8pP0DQwh0ZY2p0nGqVqhTjebzOuNWGx2fp
uCDiwaGPBSh6hP6EDOs4mrB3fVbnBftJcjZ7Bbm7KwytWjopa2fzSmOrQwTV1AxK
0sg7ftC83x1rPQbFhqmg2+TVzEmlyIKz8We0PXOs4Pje4Pw9UTbu3DCwZRgdoFhp
rny29yh8Cy5l6AyoYDRviHX8HDy12dYFQCFF5ncAJQomE0whLajqJ5vDf3FZfURv
5QZkM+T/ARtpUpmKKxYFEqBjUN1X5xziTYeXdqt2kQdd+qlNerwhuyi7cfhUhYDy
JyBv0T8NgoS6LmNT1hU+aiAk7IZBEIOaeVTz/es6viOYxLA=
-----END CERTIFICATE-----
