Certificate:
    Data:
        Version: 3 (0x2)
        Serial Number: 268435674 (0x100000da)
    Signature Algorithm: sha256WithRSAEncryption
        Issuer: C=DE, ST=Hessen, O=privacyidea, CN=CA001
        Validity
            Not Before: Dec  5 08:09:43 2017 GMT
            Not After : Dec  5 08:09:43 2018 GMT
        Subject: C=DE, ST=Hessen, O=privacyidea, CN=usercert
        Subject Public Key Info:
            Public Key Algorithm: rsaEncryption
                Public-Key: (2048 bit)
                Modulus:
                    00:dc:2f:d1:5f:29:97:d4:7c:c3:53:c8:30:bd:4b:
                    67:70:2c:24:6b:b8:5e:eb:21:7a:48:12:56:7c:81:
                    5c:48:75:b6:68:eb:f6:f2:98:4e:50:51:d1:7f:6c:
                    73:f3:0a:a7:ae:be:48:5e:e5:d6:e1:d9:2a:7c:32:
                    6e:4e:fd:08:f6:5a:54:49:23:73:c3:b9:07:18:d1:
                    ef:b3:ac:f8:8a:dc:94:96:a4:90:3a:8e:74:df:e6:
                    0d:37:1b:bd:5b:b7:25:1a:56:39:da:6f:91:aa:5e:
                    1c:74:f3:f9:7c:14:01:83:12:65:76:c7:bb:fe:36:
                    5b:95:e9:72:65:83:ed:3e:98:30:71:fa:87:dd:a3:
                    36:5a:30:03:2e:26:e0:61:d1:bf:02:3f:b6:06:1f:
                    4a:89:28:1c:5c:a2:ff:4e:be:94:e6:8c:e0:da:82:
                    f1:9d:29:32:48:30:73:b4:04:f6:42:1e:be:f7:e2:
                    32:32:27:3c:9d:89:2f:70:3e:85:9a:6f:5c:c5:09:
                    c0:8c:32:2f:72:22:c9:d2:95:1f:b6:ac:72:60:72:
                    b7:82:4d:6b:ce:5b:e3:00:d0:d2:2f:58:c6:e0:10:
                    e5:51:ca:4d:3b:2e:e6:7e:ab:84:d6:56:f1:93:35:
                    a0:93:64:26:81:75:2f:91:b5:16:06:38:0b:db:cc:
                    2d:07
                Exponent: 65537 (0x10001)
        X509v3 extensions:
            X509v3 Key Usage: 
                Digital Signature, Key Encipherment
            X509v3 Basic Constraints: 
                CA:FALSE
            Netscape Cert Type: 
                SSL Server
            Netscape Comment: 
                OpenSSL Generated Server Certificate
            X509v3 Subject Key Identifier: 
                FC:14:D1:F0:4B:8D:00:90:F2:F5:B8:71:9E:4E:97:C3:92:54:AD:0B
            X509v3 Authority Key Identifier: 
                keyid:F4:A7:C0:CC:91:46:AF:64:F3:91:F2:27:F8:C8:B2:6F:8A:87:32:73
                DirName:/C=DE/ST=Hessen/O=privacyidea/CN=CA001
                serial:FB:C8:EB:AC:83:CD:12:07

            X509v3 Extended Key Usage: 
                TLS Web Server Authentication
    Signature Algorithm: sha256WithRSAEncryption
         2c:8a:b9:49:8b:ed:8f:92:40:77:85:a6:55:46:88:d9:84:35:
         05:e4:4a:46:ac:b7:55:6d:44:9a:01:f4:34:87:8b:0c:5f:7b:
         86:01:84:79:33:6a:1d:6c:a9:8d:1c:16:04:6a:80:be:9b:f5:
         5d:94:b7:e1:80:c8:8b:e5:39:b2:30:45:3c:27:df:8b:85:ca:
         e2:1e:e0:fb:13:15:c6:dd:cd:19:11:9d:b8:f7:9f:a0:34:b6:
         ed:be:77:03:d5:d3:31:5f:38:d1:89:e6:a6:ce:d8:72:56:d2:
         65:9d:42:e7:cb:62:b9:45:59:50:f6:5b:3c:73:5f:38:f2:f7:
         1a:ba:e2:6a:1b:86:5b:02:96:bf:76:c5:53:88:97:7b:4e:20:
         66:2d:f5:57:19:04:ca:de:b3:58:29:6d:0c:b4:e0:2b:f8:3c:
         88:4a:04:2d:3c:3a:a1:b6:34:50:0d:cd:c7:12:a3:e8:4a:a4:
         e2:fe:41:34:c9:00:89:2b:5f:ab:47:ca:33:50:57:c7:62:bf:
         62:cb:a5:cc:cc:b6:de:4a:e7:22:72:27:b0:0d:48:4b:9d:89:
         a6:0d:9f:73:e2:54:89:a4:b5:34:0a:6b:33:c5:bf:c4:99:d4:
         71:7c:79:52:b9:6b:ee:e4:88:04:15:c8:fe:4c:2f:32:74:54:
         01:dc:72:f0
-----BEGIN CERTIFICATE-----
MIIEGTCCAwGgAwIBAgIEEAAA2jANBgkqhkiG9w0BAQsFADBEMQswCQYDVQQGEwJE
RTEPMA0GA1UECAwGSGVzc2VuMRQwEgYDVQQKDAtwcml2YWN5aWRlYTEOMAwGA1UE
AwwFQ0EwMDEwHhcNMTcxMjA1MDgwOTQzWhcNMTgxMjA1MDgwOTQzWjBHMQswCQYD
VQQGEwJERTEPMA0GA1UECAwGSGVzc2VuMRQwEgYDVQQKDAtwcml2YWN5aWRlYTER
MA8GA1UEAwwIdXNlcmNlcnQwggEiMA0GCSqGSIb3DQEBAQUAA4IBDwAwggEKAoIB
AQDcL9FfKZfUfMNTyDC9S2dwLCRruF7rIXpIElZ8gVxIdbZo6/bymE5QUdF/bHPz
Cqeuvkhe5dbh2Sp8Mm5O/Qj2WlRJI3PDuQcY0e+zrPiK3JSWpJA6jnTf5g03G71b
tyUaVjnab5GqXhx08/l8FAGDEmV2x7v+NluV6XJlg+0+mDBx+ofdozZaMAMuJuBh
0b8CP7YGH0qJKBxcov9OvpTmjODagvGdKTJIMHO0BPZCHr734jIyJzydiS9wPoWa
b1zFCcCMMi9yIsnSlR+2rHJgcreCTWvOW+MA0NIvWMbgEOVRyk07LuZ+q4TWVvGT
NaCTZCaBdS+RtRYGOAvbzC0HAgMBAAGjggEOMIIBCjALBgNVHQ8EBAMCBaAwCQYD
VR0TBAIwADARBglghkgBhvhCAQEEBAMCBkAwMwYJYIZIAYb4QgENBCYWJE9wZW5T
U0wgR2VuZXJhdGVkIFNlcnZlciBDZXJ0aWZpY2F0ZTAdBgNVHQ4EFgQU/BTR8EuN
AJDy9bhxnk6Xw5JUrQswdAYDVR0jBG0wa4AU9KfAzJFGr2TzkfIn+Miyb4qHMnOh
SKRGMEQxCzAJBgNVBAYTAkRFMQ8wDQYDVQQIDAZIZXNzZW4xFDASBgNVBAoMC3By
aXZhY3lpZGVhMQ4wDAYDVQQDDAVDQTAwMYIJAPvI66yDzRIHMBMGA1UdJQQMMAoG
CCsGAQUFBwMBMA0GCSqGSIb3DQEBCwUAA4IBAQAsirlJi+2PkkB3haZVRojZhDUF
5EpGrLdVbUSaAfQ0h4sMX3uGAYR5M2odbKmNHBYEaoC+m/VdlLfhgMiL5TmyMEU8
J9+LhcriHuD7ExXG3c0ZEZ2495+gNLbtvncD1dMxXzjRieamzthyVtJlnULny2K5
RVlQ9ls8c1848vcauuJqG4ZbApa/dsVTiJd7TiBmLfVXGQTK3rNYKW0MtOAr+DyI
SgQtPDqhtjRQDc3HEqPoSqTi/kE0yQCJK1+rR8ozUFfHYr9iy6XMzLbeSuciciew
DUhLnYmmDZ9z4lSJpLU0Cmszxb/EmdRxfHlSuWvu5IgEFcj+TC8ydFQB3HLw
-----END CERTIFICATE-----
