Certificate:
    Data:
        Version: 3 (0x2)
        Serial Number: 268435673 (0x100000d9)
    Signature Algorithm: sha256WithRSAEncryption
        Issuer: C=DE, ST=Hessen, O=privacyidea, CN=CA001
        Validity
            Not Before: Dec  5 08:09:43 2017 GMT
            Not After : Dec  5 08:09:43 2018 GMT
        Subject: C=DE, ST=Hessen, O=privacyidea, CN=requester.localdomain
        Subject Public Key Info:
            Public Key Algorithm: rsaEncryption
                Public-Key: (2048 bit)
                Modulus:
                    00:cd:be:14:4f:fa:ce:01:3f:42:22:1b:1d:9c:af:
                    dd:92:d2:7f:db:6c:b7:3e:39:43:43:6b:13:03:f1:
                    05:f4:07:74:bc:76:69:28:0b:af:19:8e:d7:fc:e3:
                    cd:c6:58:f2:ca:7f:08:6d:53:fc:07:02:44:24:c6:
                    b4:34:4c:8c:04:fe:33:0e:40:e2:20:ba:02:73:5a:
                    f7:f5:4f:63:6e:cc:c6:b6:df:54:1d:37:39:7d:51:
                    36:26:5f:bd:dc:3f:a8:8b:6b:a2:ae:b6:9d:d6:21:
                    e7:df:41:b8:7a:28:2a:68:48:ca:a8:2d:ed:e1:e9:
                    46:5e:5a:72:6d:b4:84:38:87:91:fd:94:11:0b:28:
                    84:c6:c2:2f:2a:fb:01:f9:36:7a:09:75:d1:33:88:
                    3c:73:41:5b:c8:bf:94:89:70:a1:f0:c0:b9:2e:50:
                    53:1e:b1:17:64:69:f4:2d:81:e0:a9:0d:0e:32:e9:
                    ba:55:8a:85:f1:1b:6f:49:79:b4:7f:88:c3:0d:3e:
                    54:88:9b:3d:1f:38:8c:04:f3:ee:6a:63:2b:f5:c6:
                    db:b4:83:aa:c4:78:41:3a:7d:4b:e1:c8:3e:71:ca:
                    1b:61:59:ea:c6:c4:ca:32:5e:c9:e9:bf:12:29:e6:
                    c6:c3:63:fe:a0:55:da:7a:f1:60:98:4d:26:ed:fa:
                    70:2d
                Exponent: 65537 (0x10001)
        X509v3 extensions:
            X509v3 Key Usage: 
                Digital Signature, Key Encipherment
            X509v3 Basic Constraints: 
                CA:FALSE
            Netscape Cert Type: 
                SSL Server
            Netscape Comment: 
                OpenSSL Generated Server Certificate
            X509v3 Subject Key Identifier: 
                53:3F:ED:5D:09:07:B3:65:7B:AB:45:C9:24:5B:09:77:80:0A:96:ED
            X509v3 Authority Key Identifier: 
                keyid:F4:A7:C0:CC:91:46:AF:64:F3:91:F2:27:F8:C8:B2:6F:8A:87:32:73
                DirName:/C=DE/ST=Hessen/O=privacyidea/CN=CA001
                serial:FB:C8:EB:AC:83:CD:12:07

            X509v3 Extended Key Usage: 
                TLS Web Server Authentication
    Signature Algorithm: sha256WithRSAEncryption
         80:bf:4c:50:5e:e7:75:6c:eb:69:94:f6:24:14:ba:b1:03:d2:
         a9:ca:19:88:b1:97:ba:da:6e:b8:60:bf:3b:bd:00:f4:16:6e:
         96:07:cc:56:17:c2:60:70:2f:59:46:cb:82:8b:cc:ea:b5:72:
         c0:1a:84:aa:eb:bb:45:b1:fd:3b:5c:3d:7f:06:bf:6e:17:32:
         32:f2:9a:cf:8c:89:a4:b5:2f:6d:b2:a8:66:30:08:ba:65:26:
         70:45:63:d5:ad:f8:72:be:a7:ff:7d:9d:c2:f0:e0:6d:78:ea:
         0e:51:0a:b7:eb:5c:c1:f5:9d:4d:5c:90:e4:14:85:fb:cf:a2:
         2b:9a:d3:7d:6d:52:6d:bd:ab:b2:9a:97:bf:96:9e:b3:1e:58:
         a2:a7:84:d4:42:07:2f:1c:6f:10:4a:19:d1:a6:08:89:0c:55:
         88:e6:2a:77:7a:22:6d:89:a1:41:5b:d1:d5:3a:07:6b:98:22:
         e6:d4:df:e4:3c:c8:84:be:e8:d0:06:25:90:2b:58:f5:ab:5a:
         87:1a:2c:a6:da:29:53:4f:5e:46:ce:7e:b9:4d:83:ed:e4:33:
         8c:fa:3c:e6:20:f5:0e:3f:4e:17:52:99:6f:9f:bd:fb:9b:69:
         21:18:60:e1:b3:4b:a3:5e:6f:66:d2:8d:59:77:20:f3:08:70:
         02:cf:6b:e7
-----BEGIN CERTIFICATE-----
MIIEJjCCAw6gAwIBAgIEEAAA2TANBgkqhkiG9w0BAQsFADBEMQswCQYDVQQGEwJE
RTEPMA0GA1UECAwGSGVzc2VuMRQwEgYDVQQKDAtwcml2YWN5aWRlYTEOMAwGA1UE
AwwFQ0EwMDEwHhcNMTcxMjA1MDgwOTQzWhcNMTgxMjA1MDgwOTQzWjBUMQswCQYD
VQQGEwJERTEPMA0GA1UECAwGSGVzc2VuMRQwEgYDVQQKDAtwcml2YWN5aWRlYTEe
MBwGA1UEAwwVcmVxdWVzdGVyLmxvY2FsZG9tYWluMIIBIjANBgkqhkiG9w0BAQEF
AAOCAQ8AMIIBCgKCAQEAzb4UT/rOAT9CIhsdnK/dktJ/22y3PjlDQ2sTA/EF9Ad0
vHZpKAuvGY7X/OPNxljyyn8IbVP8BwJEJMa0NEyMBP4zDkDiILoCc1r39U9jbszG
tt9UHTc5fVE2Jl+93D+oi2uirrad1iHn30G4eigqaEjKqC3t4elGXlpybbSEOIeR
/ZQRCyiExsIvKvsB+TZ6CXXRM4g8c0FbyL+UiXCh8MC5LlBTHrEXZGn0LYHgqQ0O
Mum6VYqF8RtvSXm0f4jDDT5UiJs9HziMBPPuamMr9cbbtIOqxHhBOn1L4cg+ccob
YVnqxsTKMl7J6b8SKebGw2P+oFXaevFgmE0m7fpwLQIDAQABo4IBDjCCAQowCwYD
VR0PBAQDAgWgMAkGA1UdEwQCMAAwEQYJYIZIAYb4QgEBBAQDAgZAMDMGCWCGSAGG
+EIBDQQmFiRPcGVuU1NMIEdlbmVyYXRlZCBTZXJ2ZXIgQ2VydGlmaWNhdGUwHQYD
VR0OBBYEFFM/7V0JB7Nle6tFySRbCXeACpbtMHQGA1UdIwRtMGuAFPSnwMyRRq9k
85HyJ/jIsm+KhzJzoUikRjBEMQswCQYDVQQGEwJERTEPMA0GA1UECAwGSGVzc2Vu
MRQwEgYDVQQKDAtwcml2YWN5aWRlYTEOMAwGA1UEAwwFQ0EwMDGCCQD7yOusg80S
BzATBgNVHSUEDDAKBggrBgEFBQcDATANBgkqhkiG9w0BAQsFAAOCAQEAgL9MUF7n
dWzraZT2JBS6sQPSqcoZiLGXutpuuGC/O70A9BZulgfMVhfCYHAvWUbLgovM6rVy
wBqEquu7RbH9O1w9fwa/bhcyMvKaz4yJpLUvbbKoZjAIumUmcEVj1a34cr6n/32d
wvDgbXjqDlEKt+tcwfWdTVyQ5BSF+8+iK5rTfW1Sbb2rspqXv5aesx5YoqeE1EIH
LxxvEEoZ0aYIiQxViOYqd3oibYmhQVvR1ToHa5gi5tTf5DzIhL7o0AYlkCtY9ata
hxosptopU09eRs5+uU2D7eQzjPo85iD1Dj9OF1KZb5+9+5tpIRhg4bNLo15vZtKN
WXcg8whwAs9r5w==
-----END CERTIFICATE-----
