Certificate:
    Data:
        Version: 3 (0x2)
        Serial Number: 268435670 (0x100000d6)
    Signature Algorithm: sha256WithRSAEncryption
        Issuer: C=DE, ST=Hessen, O=privacyidea, CN=CA001
        Validity
            Not Before: Jan  8 12:14:43 2018 GMT
            Not After : Jan  8 12:14:43 2019 GMT
        Subject: OU=realm1, CN=cornelius/emailAddress=user@localhost.localdomain
        Subject Public Key Info:
            Public Key Algorithm: rsaEncryption
                Public-Key: (2048 bit)
                Modulus:
                    00:b1:1b:31:35:fe:10:23:7b:f0:2a:83:5e:40:c5:
                    46:e4:4a:44:3d:a1:4e:47:d8:ca:86:e0:0a:8f:f0:
                    10:db:99:bd:bc:01:e4:d6:ed:a9:4f:7a:7f:2f:8a:
                    c9:6b:49:d6:f2:69:af:75:4d:16:bb:0a:e0:55:22:
                    87:19:0e:33:b9:6d:73:9d:28:47:95:c1:f9:9f:21:
                    61:b5:60:53:2d:60:19:16:1b:04:67:e3:6d:21:8b:
                    4b:84:95:d8:f3:dc:e1:a1:34:e2:28:4f:9b:36:43:
                    3f:3b:2a:b4:20:92:39:87:8a:64:2f:1e:5a:ff:6a:
                    49:fd:81:93:8f:7e:46:af:d8:da:20:d1:ca:b7:f5:
                    c9:10:6a:89:53:23:e8:d1:c3:d8:df:f5:66:ed:a6:
                    9b:68:ff:d1:58:a0:45:f7:73:48:80:82:e5:f0:c5:
                    2f:e4:6c:e7:40:83:29:0a:2f:8e:41:81:0b:e6:85:
                    5b:db:08:4d:c8:ad:5f:e8:1a:5c:6c:f7:4d:20:e0:
                    44:ac:84:8f:c8:15:4f:a8:64:2c:7c:be:f6:f1:7d:
                    39:92:4f:01:24:94:25:ab:7d:0b:61:9b:ff:85:50:
                    78:3e:ed:64:bc:7e:b0:18:c5:79:75:4d:c7:e8:e7:
                    5d:2c:12:58:e7:22:2e:5d:56:65:26:40:04:ca:df:
                    d2:63
                Exponent: 65537 (0x10001)
        X509v3 extensions:
            X509v3 Key Usage: 
                Digital Signature, Key Encipherment
            X509v3 Basic Constraints: 
                CA:FALSE
            Netscape Cert Type: 
                SSL Server
            Netscape Comment: 
                OpenSSL Generated Server Certificate
            X509v3 Subject Key Identifier: 
                70:07:79:B4:92:0A:BB:0C:89:C8:09:57:B2:42:75:9B:8F:1C:2C:C7
            X509v3 Authority Key Identifier: 
                keyid:F4:A7:C0:CC:91:46:AF:64:F3:91:F2:27:F8:C8:B2:6F:8A:87:32:73
                DirName:/C=DE/ST=Hessen/O=privacyidea/CN=CA001
                serial:FB:C8:EB:AC:83:CD:12:07

            X509v3 Extended Key Usage: 
                TLS Web Server Authentication
    Signature Algorithm: sha256WithRSAEncryption
         53:cb:c1:b5:df:87:ec:c1:6f:dc:19:09:61:b6:c9:28:1d:a4:
         ca:02:7c:6c:0c:0a:97:ec:28:21:d8:06:77:17:f5:8d:81:3f:
         b2:cd:8b:9b:dc:69:3e:2e:a2:1f:73:83:8b:fc:35:7b:5f:5b:
         f8:cb:74:82:6c:84:8e:6d:ff:cd:14:85:5e:42:75:90:39:05:
         59:8e:31:48:0d:b2:61:0f:b7:8b:09:63:c4:ef:5b:e6:8a:e5:
         b4:9f:12:3f:08:ce:b5:ac:f1:a0:43:66:bf:fb:a1:48:4d:3d:
         d7:d6:43:3a:3b:51:2a:02:b9:26:de:ae:41:91:33:a4:f8:f6:
         59:52:90:dc:a0:45:27:44:b7:ae:65:4c:83:1d:2a:f5:fd:5e:
         21:48:6b:0c:bb:ef:c3:32:8c:76:6c:74:03:e3:b4:30:d5:87:
         c8:0a:8d:d5:8d:a0:cd:68:c9:1b:ce:5b:2c:1f:16:94:42:1f:
         19:ab:83:26:b1:d2:76:6a:19:1c:a7:26:6f:cc:cb:2c:4a:f5:
         40:39:00:5e:56:97:7b:3c:c6:44:dc:a9:a9:a5:ac:07:7a:f5:
         da:70:8d:46:de:fd:d9:1f:e0:91:fc:fc:21:f7:e0:1a:40:eb:
         48:af:4d:60:2a:f7:48:af:34:00:2e:a7:89:dd:de:3b:08:1d:
         ae:fd:c4:38
-----BEGIN CERTIFICATE-----
MIIEIjCCAwqgAwIBAgIEEAAA1jANBgkqhkiG9w0BAQsFADBEMQswCQYDVQQGEwJE
RTEPMA0GA1UECAwGSGVzc2VuMRQwEgYDVQQKDAtwcml2YWN5aWRlYTEOMAwGA1UE
AwwFQ0EwMDEwHhcNMTgwMTA4MTIxNDQzWhcNMTkwMTA4MTIxNDQzWjBQMQ8wDQYD
VQQLDAZyZWFsbTExEjAQBgNVBAMMCWNvcm5lbGl1czEpMCcGCSqGSIb3DQEJARYa
dXNlckBsb2NhbGhvc3QubG9jYWxkb21haW4wggEiMA0GCSqGSIb3DQEBAQUAA4IB
DwAwggEKAoIBAQCxGzE1/hAje/Aqg15AxUbkSkQ9oU5H2MqG4AqP8BDbmb28AeTW
7alPen8vislrSdbyaa91TRa7CuBVIocZDjO5bXOdKEeVwfmfIWG1YFMtYBkWGwRn
420hi0uEldjz3OGhNOIoT5s2Qz87KrQgkjmHimQvHlr/akn9gZOPfkav2Nog0cq3
9ckQaolTI+jRw9jf9Wbtppto/9FYoEX3c0iAguXwxS/kbOdAgykKL45BgQvmhVvb
CE3IrV/oGlxs900g4ESshI/IFU+oZCx8vvbxfTmSTwEklCWrfQthm/+FUHg+7WS8
frAYxXl1Tcfo510sEljnIi5dVmUmQATK39JjAgMBAAGjggEOMIIBCjALBgNVHQ8E
BAMCBaAwCQYDVR0TBAIwADARBglghkgBhvhCAQEEBAMCBkAwMwYJYIZIAYb4QgEN
BCYWJE9wZW5TU0wgR2VuZXJhdGVkIFNlcnZlciBDZXJ0aWZpY2F0ZTAdBgNVHQ4E
FgQUcAd5tJIKuwyJyAlXskJ1m48cLMcwdAYDVR0jBG0wa4AU9KfAzJFGr2TzkfIn
+Miyb4qHMnOhSKRGMEQxCzAJBgNVBAYTAkRFMQ8wDQYDVQQIDAZIZXNzZW4xFDAS
BgNVBAoMC3ByaXZhY3lpZGVhMQ4wDAYDVQQDDAVDQTAwMYIJAPvI66yDzRIHMBMG
A1UdJQQMMAoGCCsGAQUFBwMBMA0GCSqGSIb3DQEBCwUAA4IBAQBTy8G134fswW/c
GQlhtskoHaTKAnxsDAqX7Cgh2AZ3F/WNgT+yzYub3Gk+LqIfc4OL/DV7X1v4y3SC
bISObf/NFIVeQnWQOQVZjjFIDbJhD7eLCWPE71vmiuW0nxI/CM61rPGgQ2a/+6FI
TT3X1kM6O1EqArkm3q5BkTOk+PZZUpDcoEUnRLeuZUyDHSr1/V4hSGsMu+/DMox2
bHQD47Qw1YfICo3VjaDNaMkbzlssHxaUQh8Zq4MmsdJ2ahkcpyZvzMssSvVAOQBe
Vpd7PMZE3KmppawHevXacI1G3v3ZH+CR/Pwh9+AaQOtIr01gKvdIrzQALqeJ3d47
CB2u/cQ4
-----END CERTIFICATE-----
