Certificate:
    Data:
        Version: 3 (0x2)
        Serial Number: 268435667 (0x100000d3)
    Signature Algorithm: sha256WithRSAEncryption
        Issuer: C=DE, ST=Hessen, O=privacyidea, CN=CA001
        Validity
            Not Before: Jan 22 12:57:52 2018 GMT
            Not After : Jan 22 12:57:52 2019 GMT
        Subject: C=DE, ST=Hessen, O=privacyidea, CN=usercert
        Subject Public Key Info:
            Public Key Algorithm: rsaEncryption
                Public-Key: (2048 bit)
                Modulus:
                    00:dc:2f:d1:5f:29:97:d4:7c:c3:53:c8:30:bd:4b:
                    67:70:2c:24:6b:b8:5e:eb:21:7a:48:12:56:7c:81:
                    5c:48:75:b6:68:eb:f6:f2:98:4e:50:51:d1:7f:6c:
                    73:f3:0a:a7:ae:be:48:5e:e5:d6:e1:d9:2a:7c:32:
                    6e:4e:fd:08:f6:5a:54:49:23:73:c3:b9:07:18:d1:
                    ef:b3:ac:f8:8a:dc:94:96:a4:90:3a:8e:74:df:e6:
                    0d:37:1b:bd:5b:b7:25:1a:56:39:da:6f:91:aa:5e:
                    1c:74:f3:f9:7c:14:01:83:12:65:76:c7:bb:fe:36:
                    5b:95:e9:72:65:83:ed:3e:98:30:71:fa:87:dd:a3:
                    36:5a:30:03:2e:26:e0:61:d1:bf:02:3f:b6:06:1f:
                    4a:89:28:1c:5c:a2:ff:4e:be:94:e6:8c:e0:da:82:
                    f1:9d:29:32:48:30:73:b4:04:f6:42:1e:be:f7:e2:
                    32:32:27:3c:9d:89:2f:70:3e:85:9a:6f:5c:c5:09:
                    c0:8c:32:2f:72:22:c9:d2:95:1f:b6:ac:72:60:72:
                    b7:82:4d:6b:ce:5b:e3:00:d0:d2:2f:58:c6:e0:10:
                    e5:51:ca:4d:3b:2e:e6:7e:ab:84:d6:56:f1:93:35:
                    a0:93:64:26:81:75:2f:91:b5:16:06:38:0b:db:cc:
                    2d:07
                Exponent: 65537 (0x10001)
        X509v3 extensions:
            X509v3 Key Usage: 
                Digital Signature, Key Encipherment
            X509v3 Basic Constraints: 
                CA:FALSE
            Netscape Cert Type: 
                SSL Server
            Netscape Comment: 
                OpenSSL Generated Server Certificate
            X509v3 Subject Key Identifier: 
                FC:14:D1:F0:4B:8D:00:90:F2:F5:B8:71:9E:4E:97:C3:92:54:AD:0B
            X509v3 Authority Key Identifier: 
                keyid:F4:A7:C0:CC:91:46:AF:64:F3:91:F2:27:F8:C8:B2:6F:8A:87:32:73
                DirName:/C=DE/ST=Hessen/O=privacyidea/CN=CA001
                serial:FB:C8:EB:AC:83:CD:12:07

            X509v3 Extended Key Usage: 
                TLS Web Server Authentication
    Signature Algorithm: sha256WithRSAEncryption
         ac:3b:3b:b2:dc:2f:f2:2e:39:84:38:26:7d:26:24:08:ff:48:
         86:b9:b4:3c:7e:f6:2a:ac:fa:2f:9a:64:84:06:5a:3e:2f:01:
         f1:6f:63:e6:c8:bf:5c:77:c2:e5:ae:0a:ab:75:28:43:10:75:
         58:af:ad:8f:09:79:15:c9:8b:3b:4b:7e:f4:27:ce:3a:97:b7:
         7d:06:3b:1a:96:ab:08:d7:46:d1:56:12:a5:8e:e8:17:6b:4f:
         d0:ff:d3:93:66:ba:53:ba:84:2c:f7:ad:4d:18:7d:cf:00:62:
         8e:2b:bc:b1:16:61:40:c1:d9:f7:d5:9f:d7:0f:2a:e6:ca:8a:
         ba:45:f5:58:f6:59:ba:af:78:e1:c6:f1:83:aa:4e:72:ce:ba:
         7d:3b:bd:48:29:e1:01:24:d8:b1:5f:40:ce:2d:c6:42:bd:c5:
         a6:71:04:9d:f2:09:55:0c:1d:02:8c:e5:82:97:09:74:fa:6d:
         36:d7:16:db:38:ab:63:ed:c8:05:8e:0b:14:64:91:96:f2:03:
         9b:d7:01:f9:51:e7:dd:6e:4a:25:21:8c:c9:33:8e:35:e8:db:
         58:f8:3f:2b:15:b6:de:a6:a7:a1:0c:9b:6a:8b:8e:52:58:58:
         e7:ac:cd:8f:cf:61:0e:92:d4:39:4a:18:4d:ec:5f:8f:05:b6:
         6d:53:02:ad
-----BEGIN CERTIFICATE-----
MIIEGTCCAwGgAwIBAgIEEAAA0zANBgkqhkiG9w0BAQsFADBEMQswCQYDVQQGEwJE
RTEPMA0GA1UECAwGSGVzc2VuMRQwEgYDVQQKDAtwcml2YWN5aWRlYTEOMAwGA1UE
AwwFQ0EwMDEwHhcNMTgwMTIyMTI1NzUyWhcNMTkwMTIyMTI1NzUyWjBHMQswCQYD
VQQGEwJERTEPMA0GA1UECAwGSGVzc2VuMRQwEgYDVQQKDAtwcml2YWN5aWRlYTER
MA8GA1UEAwwIdXNlcmNlcnQwggEiMA0GCSqGSIb3DQEBAQUAA4IBDwAwggEKAoIB
AQDcL9FfKZfUfMNTyDC9S2dwLCRruF7rIXpIElZ8gVxIdbZo6/bymE5QUdF/bHPz
Cqeuvkhe5dbh2Sp8Mm5O/Qj2WlRJI3PDuQcY0e+zrPiK3JSWpJA6jnTf5g03G71b
tyUaVjnab5GqXhx08/l8FAGDEmV2x7v+NluV6XJlg+0+mDBx+ofdozZaMAMuJuBh
0b8CP7YGH0qJKBxcov9OvpTmjODagvGdKTJIMHO0BPZCHr734jIyJzydiS9wPoWa
b1zFCcCMMi9yIsnSlR+2rHJgcreCTWvOW+MA0NIvWMbgEOVRyk07LuZ+q4TWVvGT
NaCTZCaBdS+RtRYGOAvbzC0HAgMBAAGjggEOMIIBCjALBgNVHQ8EBAMCBaAwCQYD
VR0TBAIwADARBglghkgBhvhCAQEEBAMCBkAwMwYJYIZIAYb4QgENBCYWJE9wZW5T
U0wgR2VuZXJhdGVkIFNlcnZlciBDZXJ0aWZpY2F0ZTAdBgNVHQ4EFgQU/BTR8EuN
AJDy9bhxnk6Xw5JUrQswdAYDVR0jBG0wa4AU9KfAzJFGr2TzkfIn+Miyb4qHMnOh
SKRGMEQxCzAJBgNVBAYTAkRFMQ8wDQYDVQQIDAZIZXNzZW4xFDASBgNVBAoMC3By
aXZhY3lpZGVhMQ4wDAYDVQQDDAVDQTAwMYIJAPvI66yDzRIHMBMGA1UdJQQMMAoG
CCsGAQUFBwMBMA0GCSqGSIb3DQEBCwUAA4IBAQCsOzuy3C/yLjmEOCZ9JiQI/0iG
ubQ8fvYqrPovmmSEBlo+LwHxb2PmyL9cd8LlrgqrdShDEHVYr62PCXkVyYs7S370
J846l7d9BjsalqsI10bRVhKljugXa0/Q/9OTZrpTuoQs961NGH3PAGKOK7yxFmFA
wdn31Z/XDyrmyoq6RfVY9lm6r3jhxvGDqk5yzrp9O71IKeEBJNixX0DOLcZCvcWm
cQSd8glVDB0CjOWClwl0+m021xbbOKtj7cgFjgsUZJGW8gOb1wH5UefdbkolIYzJ
M4416NtY+D8rFbbepqehDJtqi45SWFjnrM2Pz2EOktQ5ShhN7F+PBbZtUwKt
-----END CERTIFICATE-----
