Certificate:
    Data:
        Version: 3 (0x2)
        Serial Number: 268435665 (0x100000d1)
    Signature Algorithm: sha256WithRSAEncryption
        Issuer: C=DE, ST=Hessen, O=privacyidea, CN=CA001
        Validity
            Not Before: Jan 22 12:56:51 2018 GMT
            Not After : Jan 22 12:56:51 2019 GMT
        Subject: C=DE, ST=Hessen, O=privacyidea, CN=requester.localdomain
        Subject Public Key Info:
            Public Key Algorithm: rsaEncryption
                Public-Key: (2048 bit)
                Modulus:
                    00:cd:be:14:4f:fa:ce:01:3f:42:22:1b:1d:9c:af:
                    dd:92:d2:7f:db:6c:b7:3e:39:43:43:6b:13:03:f1:
                    05:f4:07:74:bc:76:69:28:0b:af:19:8e:d7:fc:e3:
                    cd:c6:58:f2:ca:7f:08:6d:53:fc:07:02:44:24:c6:
                    b4:34:4c:8c:04:fe:33:0e:40:e2:20:ba:02:73:5a:
                    f7:f5:4f:63:6e:cc:c6:b6:df:54:1d:37:39:7d:51:
                    36:26:5f:bd:dc:3f:a8:8b:6b:a2:ae:b6:9d:d6:21:
                    e7:df:41:b8:7a:28:2a:68:48:ca:a8:2d:ed:e1:e9:
                    46:5e:5a:72:6d:b4:84:38:87:91:fd:94:11:0b:28:
                    84:c6:c2:2f:2a:fb:01:f9:36:7a:09:75:d1:33:88:
                    3c:73:41:5b:c8:bf:94:89:70:a1:f0:c0:b9:2e:50:
                    53:1e:b1:17:64:69:f4:2d:81:e0:a9:0d:0e:32:e9:
                    ba:55:8a:85:f1:1b:6f:49:79:b4:7f:88:c3:0d:3e:
                    54:88:9b:3d:1f:38:8c:04:f3:ee:6a:63:2b:f5:c6:
                    db:b4:83:aa:c4:78:41:3a:7d:4b:e1:c8:3e:71:ca:
                    1b:61:59:ea:c6:c4:ca:32:5e:c9:e9:bf:12:29:e6:
                    c6:c3:63:fe:a0:55:da:7a:f1:60:98:4d:26:ed:fa:
                    70:2d
                Exponent: 65537 (0x10001)
        X509v3 extensions:
            X509v3 Key Usage: 
                Digital Signature, Key Encipherment
            X509v3 Basic Constraints: 
                CA:FALSE
            Netscape Cert Type: 
                SSL Server
            Netscape Comment: 
                OpenSSL Generated Server Certificate
            X509v3 Subject Key Identifier: 
                53:3F:ED:5D:09:07:B3:65:7B:AB:45:C9:24:5B:09:77:80:0A:96:ED
            X509v3 Authority Key Identifier: 
                keyid:F4:A7:C0:CC:91:46:AF:64:F3:91:F2:27:F8:C8:B2:6F:8A:87:32:73
                DirName:/C=DE/ST=Hessen/O=privacyidea/CN=CA001
                serial:FB:C8:EB:AC:83:CD:12:07

            X509v3 Extended Key Usage: 
                TLS Web Server Authentication
    Signature Algorithm: sha256WithRSAEncryption
         3c:f9:7f:cc:75:5e:76:86:44:14:9a:85:89:24:df:0c:f1:36:
         f9:65:e0:60:84:d2:63:1e:9e:e9:6a:f5:78:92:45:c7:65:7e:
         ca:19:db:1f:23:88:fc:1e:bb:19:0a:5e:74:52:b2:f0:2c:1f:
         66:ca:8f:e3:ca:d4:81:7f:ce:c9:17:e4:5b:2c:3b:67:f2:f5:
         18:42:ef:99:f7:93:fa:0d:fe:72:7a:e1:db:83:05:71:a1:28:
         33:1a:30:fb:9b:67:44:cf:df:7f:d0:ee:9d:5b:c0:d5:3f:ac:
         cf:41:bc:0d:c0:a6:60:25:f8:90:a6:e4:a4:ba:14:8f:8c:d8:
         e0:38:2b:d4:e0:96:4e:38:78:c6:c5:38:32:54:21:48:f6:74:
         93:d8:e7:dd:65:e4:eb:a4:73:1c:82:19:84:d4:2c:3d:f2:00:
         45:18:34:65:10:f9:3b:85:13:9d:de:6b:57:cb:7c:22:1d:b9:
         00:6e:ad:db:e9:17:f7:4e:c5:81:8a:e0:d1:26:29:72:ca:d8:
         c1:21:83:2f:15:f2:6a:f7:17:e9:c7:1b:83:63:d9:b9:d2:d9:
         1d:03:c1:e1:b0:21:6a:8c:01:8c:cb:3b:e6:78:10:b3:a6:4d:
         03:37:24:ad:a8:48:b1:1b:1c:7e:1a:32:07:f6:30:1d:87:63:
         06:f8:4a:4a
-----BEGIN CERTIFICATE-----
MIIEJjCCAw6gAwIBAgIEEAAA0TANBgkqhkiG9w0BAQsFADBEMQswCQYDVQQGEwJE
RTEPMA0GA1UECAwGSGVzc2VuMRQwEgYDVQQKDAtwcml2YWN5aWRlYTEOMAwGA1UE
AwwFQ0EwMDEwHhcNMTgwMTIyMTI1NjUxWhcNMTkwMTIyMTI1NjUxWjBUMQswCQYD
VQQGEwJERTEPMA0GA1UECAwGSGVzc2VuMRQwEgYDVQQKDAtwcml2YWN5aWRlYTEe
MBwGA1UEAwwVcmVxdWVzdGVyLmxvY2FsZG9tYWluMIIBIjANBgkqhkiG9w0BAQEF
AAOCAQ8AMIIBCgKCAQEAzb4UT/rOAT9CIhsdnK/dktJ/22y3PjlDQ2sTA/EF9Ad0
vHZpKAuvGY7X/OPNxljyyn8IbVP8BwJEJMa0NEyMBP4zDkDiILoCc1r39U9jbszG
tt9UHTc5fVE2Jl+93D+oi2uirrad1iHn30G4eigqaEjKqC3t4elGXlpybbSEOIeR
/ZQRCyiExsIvKvsB+TZ6CXXRM4g8c0FbyL+UiXCh8MC5LlBTHrEXZGn0LYHgqQ0O
Mum6VYqF8RtvSXm0f4jDDT5UiJs9HziMBPPuamMr9cbbtIOqxHhBOn1L4cg+ccob
YVnqxsTKMl7J6b8SKebGw2P+oFXaevFgmE0m7fpwLQIDAQABo4IBDjCCAQowCwYD
VR0PBAQDAgWgMAkGA1UdEwQCMAAwEQYJYIZIAYb4QgEBBAQDAgZAMDMGCWCGSAGG
+EIBDQQmFiRPcGVuU1NMIEdlbmVyYXRlZCBTZXJ2ZXIgQ2VydGlmaWNhdGUwHQYD
VR0OBBYEFFM/7V0JB7Nle6tFySRbCXeACpbtMHQGA1UdIwRtMGuAFPSnwMyRRq9k
85HyJ/jIsm+KhzJzoUikRjBEMQswCQYDVQQGEwJERTEPMA0GA1UECAwGSGVzc2Vu
MRQwEgYDVQQKDAtwcml2YWN5aWRlYTEOMAwGA1UEAwwFQ0EwMDGCCQD7yOusg80S
BzATBgNVHSUEDDAKBggrBgEFBQcDATANBgkqhkiG9w0BAQsFAAOCAQEAPPl/zHVe
doZEFJqFiSTfDPE2+WXgYITSYx6e6Wr1eJJFx2V+yhnbHyOI/B67GQpedFKy8Cwf
ZsqP48rUgX/OyRfkWyw7Z/L1GELvmfeT+g3+cnrh24MFcaEoMxow+5tnRM/ff9Du
nVvA1T+sz0G8DcCmYCX4kKbkpLoUj4zY4Dgr1OCWTjh4xsU4MlQhSPZ0k9jn3WXk
66RzHIIZhNQsPfIARRg0ZRD5O4UTnd5rV8t8Ih25AG6t2+kX907FgYrg0SYpcsrY
wSGDLxXyavcX6ccbg2PZudLZHQPB4bAhaowBjMs75ngQs6ZNAzckrahIsRscfhoy
B/YwHYdjBvhKSg==
-----END CERTIFICATE-----
