Certificate:
    Data:
        Version: 3 (0x2)
        Serial Number: 268435668 (0x100000d4)
    Signature Algorithm: sha256WithRSAEncryption
        Issuer: C=DE, ST=Hessen, O=privacyidea, CN=CA001
        Validity
            Not Before: Jan 22 12:57:52 2018 GMT
            Not After : Jan 22 12:57:52 2019 GMT
        Subject: CN=Steve Test/emailAddress=steve@openssl.org
        Subject Public Key Info:
            Public Key Algorithm: rsaEncryption
                Public-Key: (2048 bit)
                Modulus:
                    00:d2:81:89:20:51:48:0f:73:f4:11:32:24:d5:1f:
                    1c:fd:5c:f5:b6:e6:c5:f0:52:81:dc:d2:af:66:4a:
                    7c:93:31:61:5c:af:d1:6d:06:70:03:60:7c:72:0c:
                    88:dd:49:cd:9e:02:6c:d2:5a:d7:53:0f:f3:da:be:
                    69:64:b5:0f:0c:00:e3:b3:50:47:a3:b3:9b:ba:13:
                    50:d6:58:5a:4b:ab:39:e0:11:ca:0a:27:67:03:78:
                    22:66:6d:92:1e:1b:5c:49:ae:e6:6b:d1:8e:3b:9d:
                    06:d3:c6:ac:4d:53:43:10:ab:e8:96:c1:87:82:97:
                    99:8f:20:d3:99:12:37:31:84:e1:8a:ff:29:03:5f:
                    22:90:3e:7f:9b:e0:20:c1:ad:dc:ae:4c:39:1a:31:
                    96:17:02:8c:b2:d9:b4:0d:20:12:9b:7d:86:54:fd:
                    33:fd:c1:2a:62:46:f8:60:96:cf:6e:01:6f:22:df:
                    13:47:e7:97:ec:05:72:23:a3:62:f8:fa:ef:ac:9c:
                    72:f0:37:cb:2f:37:cf:90:a8:27:51:86:c6:d7:78:
                    08:8f:7e:25:a2:15:70:a2:fb:1c:b6:15:5e:a0:97:
                    8b:81:4c:09:28:8a:27:3b:94:bc:71:db:5b:71:37:
                    9a:2b:16:e0:6f:b5:c9:f5:4b:4f:20:ba:65:cf:af:
                    ad:ad
                Exponent: 65537 (0x10001)
        X509v3 extensions:
            X509v3 Key Usage: 
                Digital Signature, Key Encipherment
            X509v3 Basic Constraints: 
                CA:FALSE
            Netscape Cert Type: 
                SSL Server
            Netscape Comment: 
                OpenSSL Generated Server Certificate
            X509v3 Subject Key Identifier: 
                E5:25:6D:3E:AF:0D:DD:3F:4C:F2:45:19:39:D5:14:DB:7E:9C:C0:AD
            X509v3 Authority Key Identifier: 
                keyid:F4:A7:C0:CC:91:46:AF:64:F3:91:F2:27:F8:C8:B2:6F:8A:87:32:73
                DirName:/C=DE/ST=Hessen/O=privacyidea/CN=CA001
                serial:FB:C8:EB:AC:83:CD:12:07

            X509v3 Extended Key Usage: 
                TLS Web Server Authentication
    Signature Algorithm: sha256WithRSAEncryption
         19:55:b6:3c:17:44:46:4a:c4:5e:8d:80:eb:d6:fb:11:d2:4a:
         f6:63:4d:63:51:6c:ce:fd:f5:81:79:9c:a7:c9:20:ce:65:15:
         e1:ee:26:ad:26:c9:3a:79:ce:02:61:d1:13:a7:d8:7d:8e:21:
         ad:9e:62:c2:a7:e6:c1:01:6d:a6:f3:7c:70:20:bd:90:82:36:
         c8:7a:a6:9d:5b:1d:fd:af:5f:20:9f:32:60:7f:4f:57:b7:34:
         96:b7:b2:0e:4c:7a:25:e2:65:8b:e1:8b:a5:1c:9a:b4:92:26:
         cd:77:c3:ca:9d:14:10:62:0b:6f:89:f6:c9:7f:5f:d3:f3:4a:
         6a:c5:38:6a:48:42:21:7a:74:3e:f0:7e:30:41:b2:f2:12:9b:
         bc:f4:63:a6:b8:1f:b4:81:04:3c:d7:ec:9f:ed:2f:f2:b1:a7:
         39:21:c0:a2:79:83:10:8c:bb:13:76:9e:a4:fa:94:76:1b:16:
         71:1b:4c:83:1a:2d:d7:b5:b5:87:11:84:1e:f1:e9:05:88:7e:
         a2:1c:f7:78:07:ef:ff:9f:2c:64:4e:6c:5b:7f:da:94:67:0b:
         55:b8:7d:42:99:94:b5:04:ba:a8:9d:f7:45:32:32:4f:0c:1a:
         87:fe:02:cb:2c:ff:f5:a5:a0:08:9f:cc:20:63:8e:59:e7:b8:
         65:55:fc:1f
-----BEGIN CERTIFICATE-----
MIIECTCCAvGgAwIBAgIEEAAA1DANBgkqhkiG9w0BAQsFADBEMQswCQYDVQQGEwJE
RTEPMA0GA1UECAwGSGVzc2VuMRQwEgYDVQQKDAtwcml2YWN5aWRlYTEOMAwGA1UE
AwwFQ0EwMDEwHhcNMTgwMTIyMTI1NzUyWhcNMTkwMTIyMTI1NzUyWjA3MRMwEQYD
VQQDDApTdGV2ZSBUZXN0MSAwHgYJKoZIhvcNAQkBFhFzdGV2ZUBvcGVuc3NsLm9y
ZzCCASIwDQYJKoZIhvcNAQEBBQADggEPADCCAQoCggEBANKBiSBRSA9z9BEyJNUf
HP1c9bbmxfBSgdzSr2ZKfJMxYVyv0W0GcANgfHIMiN1JzZ4CbNJa11MP89q+aWS1
DwwA47NQR6Ozm7oTUNZYWkurOeARygonZwN4ImZtkh4bXEmu5mvRjjudBtPGrE1T
QxCr6JbBh4KXmY8g05kSNzGE4Yr/KQNfIpA+f5vgIMGt3K5MORoxlhcCjLLZtA0g
Ept9hlT9M/3BKmJG+GCWz24BbyLfE0fnl+wFciOjYvj676yccvA3yy83z5CoJ1GG
xtd4CI9+JaIVcKL7HLYVXqCXi4FMCSiKJzuUvHHbW3E3misW4G+1yfVLTyC6Zc+v
ra0CAwEAAaOCAQ4wggEKMAsGA1UdDwQEAwIFoDAJBgNVHRMEAjAAMBEGCWCGSAGG
+EIBAQQEAwIGQDAzBglghkgBhvhCAQ0EJhYkT3BlblNTTCBHZW5lcmF0ZWQgU2Vy
dmVyIENlcnRpZmljYXRlMB0GA1UdDgQWBBTlJW0+rw3dP0zyRRk51RTbfpzArTB0
BgNVHSMEbTBrgBT0p8DMkUavZPOR8if4yLJviocyc6FIpEYwRDELMAkGA1UEBhMC
REUxDzANBgNVBAgMBkhlc3NlbjEUMBIGA1UECgwLcHJpdmFjeWlkZWExDjAMBgNV
BAMMBUNBMDAxggkA+8jrrIPNEgcwEwYDVR0lBAwwCgYIKwYBBQUHAwEwDQYJKoZI
hvcNAQELBQADggEBABlVtjwXREZKxF6NgOvW+xHSSvZjTWNRbM799YF5nKfJIM5l
FeHuJq0myTp5zgJh0ROn2H2OIa2eYsKn5sEBbabzfHAgvZCCNsh6pp1bHf2vXyCf
MmB/T1e3NJa3sg5MeiXiZYvhi6UcmrSSJs13w8qdFBBiC2+J9sl/X9PzSmrFOGpI
QiF6dD7wfjBBsvISm7z0Y6a4H7SBBDzX7J/tL/KxpzkhwKJ5gxCMuxN2nqT6lHYb
FnEbTIMaLde1tYcRhB7x6QWIfqIc93gH7/+fLGRObFt/2pRnC1W4fUKZlLUEuqid
90UyMk8MGof+Asss//WloAifzCBjjlnnuGVV/B8=
-----END CERTIFICATE-----
