Certificate:
    Data:
        Version: 3 (0x2)
        Serial Number: 268435671 (0x100000d7)
    Signature Algorithm: sha256WithRSAEncryption
        Issuer: C=DE, ST=Hessen, O=privacyidea, CN=CA001
        Validity
            Not Before: Jan 22 13:05:36 2018 GMT
            Not After : Jan 22 13:05:36 2019 GMT
        Subject: C=DE, ST=Hessen, O=privacyidea, CN=requester.localdomain
        Subject Public Key Info:
            Public Key Algorithm: rsaEncryption
                Public-Key: (2048 bit)
                Modulus:
                    00:cd:be:14:4f:fa:ce:01:3f:42:22:1b:1d:9c:af:
                    dd:92:d2:7f:db:6c:b7:3e:39:43:43:6b:13:03:f1:
                    05:f4:07:74:bc:76:69:28:0b:af:19:8e:d7:fc:e3:
                    cd:c6:58:f2:ca:7f:08:6d:53:fc:07:02:44:24:c6:
                    b4:34:4c:8c:04:fe:33:0e:40:e2:20:ba:02:73:5a:
                    f7:f5:4f:63:6e:cc:c6:b6:df:54:1d:37:39:7d:51:
                    36:26:5f:bd:dc:3f:a8:8b:6b:a2:ae:b6:9d:d6:21:
                    e7:df:41:b8:7a:28:2a:68:48:ca:a8:2d:ed:e1:e9:
                    46:5e:5a:72:6d:b4:84:38:87:91:fd:94:11:0b:28:
                    84:c6:c2:2f:2a:fb:01:f9:36:7a:09:75:d1:33:88:
                    3c:73:41:5b:c8:bf:94:89:70:a1:f0:c0:b9:2e:50:
                    53:1e:b1:17:64:69:f4:2d:81:e0:a9:0d:0e:32:e9:
                    ba:55:8a:85:f1:1b:6f:49:79:b4:7f:88:c3:0d:3e:
                    54:88:9b:3d:1f:38:8c:04:f3:ee:6a:63:2b:f5:c6:
                    db:b4:83:aa:c4:78:41:3a:7d:4b:e1:c8:3e:71:ca:
                    1b:61:59:ea:c6:c4:ca:32:5e:c9:e9:bf:12:29:e6:
                    c6:c3:63:fe:a0:55:da:7a:f1:60:98:4d:26:ed:fa:
                    70:2d
                Exponent: 65537 (0x10001)
        X509v3 extensions:
            X509v3 Key Usage: 
                Digital Signature, Key Encipherment
            X509v3 Basic Constraints: 
                CA:FALSE
            Netscape Cert Type: 
                SSL Server
            Netscape Comment: 
                OpenSSL Generated Server Certificate
            X509v3 Subject Key Identifier: 
                53:3F:ED:5D:09:07:B3:65:7B:AB:45:C9:24:5B:09:77:80:0A:96:ED
            X509v3 Authority Key Identifier: 
                keyid:F4:A7:C0:CC:91:46:AF:64:F3:91:F2:27:F8:C8:B2:6F:8A:87:32:73
                DirName:/C=DE/ST=Hessen/O=privacyidea/CN=CA001
                serial:FB:C8:EB:AC:83:CD:12:07

            X509v3 Extended Key Usage: 
                TLS Web Server Authentication
    Signature Algorithm: sha256WithRSAEncryption
         4f:b7:95:fd:e0:c1:6e:2e:e8:77:2a:18:1a:67:03:62:a3:cd:
         e1:06:a1:9a:80:88:6e:cc:ea:11:8c:90:57:d2:d5:8b:31:ea:
         a1:c6:a2:3a:6d:56:b1:d8:af:47:81:3a:d2:5d:97:c0:94:39:
         ee:dd:ef:ea:e0:99:ef:dd:06:a9:25:bc:93:62:e0:06:da:26:
         3a:ca:47:6a:c8:87:63:da:a4:80:aa:04:e6:4a:0d:be:7a:01:
         e2:32:57:ed:4c:91:ae:cc:7e:04:ce:14:c2:53:ff:64:7b:b6:
         ba:84:90:fb:a2:5d:7d:fa:b9:60:b6:c3:4e:29:3d:4c:04:b9:
         8e:1f:d1:a5:6a:33:42:45:1f:01:8e:2d:56:2a:52:36:62:61:
         fe:84:42:c2:85:f6:73:4a:f8:80:ba:ce:16:bd:b8:1d:79:6c:
         57:a7:ad:21:f1:ba:32:46:23:d0:bd:87:e0:88:8a:3e:7e:8f:
         96:c0:5f:93:c4:aa:ea:19:5a:8d:b2:b0:82:9c:8a:ec:88:87:
         a7:e8:58:88:d2:d8:08:b6:0b:1c:7f:c7:38:ea:0f:e3:7e:9c:
         73:98:7e:bf:d8:34:25:ad:ac:84:d9:55:ca:7d:9d:29:71:cf:
         40:04:aa:5d:26:e7:56:90:f9:32:4c:4c:30:80:d6:57:f9:03:
         d9:5e:74:ce
-----BEGIN CERTIFICATE-----
MIIEJjCCAw6gAwIBAgIEEAAA1zANBgkqhkiG9w0BAQsFADBEMQswCQYDVQQGEwJE
RTEPMA0GA1UECAwGSGVzc2VuMRQwEgYDVQQKDAtwcml2YWN5aWRlYTEOMAwGA1UE
AwwFQ0EwMDEwHhcNMTgwMTIyMTMwNTM2WhcNMTkwMTIyMTMwNTM2WjBUMQswCQYD
VQQGEwJERTEPMA0GA1UECAwGSGVzc2VuMRQwEgYDVQQKDAtwcml2YWN5aWRlYTEe
MBwGA1UEAwwVcmVxdWVzdGVyLmxvY2FsZG9tYWluMIIBIjANBgkqhkiG9w0BAQEF
AAOCAQ8AMIIBCgKCAQEAzb4UT/rOAT9CIhsdnK/dktJ/22y3PjlDQ2sTA/EF9Ad0
vHZpKAuvGY7X/OPNxljyyn8IbVP8BwJEJMa0NEyMBP4zDkDiILoCc1r39U9jbszG
tt9UHTc5fVE2Jl+93D+oi2uirrad1iHn30G4eigqaEjKqC3t4elGXlpybbSEOIeR
/ZQRCyiExsIvKvsB+TZ6CXXRM4g8c0FbyL+UiXCh8MC5LlBTHrEXZGn0LYHgqQ0O
Mum6VYqF8RtvSXm0f4jDDT5UiJs9HziMBPPuamMr9cbbtIOqxHhBOn1L4cg+ccob
YVnqxsTKMl7J6b8SKebGw2P+oFXaevFgmE0m7fpwLQIDAQABo4IBDjCCAQowCwYD
VR0PBAQDAgWgMAkGA1UdEwQCMAAwEQYJYIZIAYb4QgEBBAQDAgZAMDMGCWCGSAGG
+EIBDQQmFiRPcGVuU1NMIEdlbmVyYXRlZCBTZXJ2ZXIgQ2VydGlmaWNhdGUwHQYD
VR0OBBYEFFM/7V0JB7Nle6tFySRbCXeACpbtMHQGA1UdIwRtMGuAFPSnwMyRRq9k
85HyJ/jIsm+KhzJzoUikRjBEMQswCQYDVQQGEwJERTEPMA0GA1UECAwGSGVzc2Vu
MRQwEgYDVQQKDAtwcml2YWN5aWRlYTEOMAwGA1UEAwwFQ0EwMDGCCQD7yOusg80S
BzATBgNVHSUEDDAKBggrBgEFBQcDATANBgkqhkiG9w0BAQsFAAOCAQEAT7eV/eDB
bi7odyoYGmcDYqPN4QahmoCIbszqEYyQV9LVizHqocaiOm1WsdivR4E60l2XwJQ5
7t3v6uCZ790GqSW8k2LgBtomOspHasiHY9qkgKoE5koNvnoB4jJX7UyRrsx+BM4U
wlP/ZHu2uoSQ+6Jdffq5YLbDTik9TAS5jh/RpWozQkUfAY4tVipSNmJh/oRCwoX2
c0r4gLrOFr24HXlsV6etIfG6MkYj0L2H4IiKPn6PlsBfk8Sq6hlajbKwgpyK7IiH
p+hYiNLYCLYLHH/HOOoP436cc5h+v9g0Ja2shNlVyn2dKXHPQASqXSbnVpD5MkxM
MIDWV/kD2V50zg==
-----END CERTIFICATE-----
