Certificate:
    Data:
        Version: 3 (0x2)
        Serial Number: 268435664 (0x100000d0)
    Signature Algorithm: sha256WithRSAEncryption
        Issuer: C=DE, ST=Hessen, O=privacyidea, CN=CA001
        Validity
            Not Before: Jan 22 12:54:53 2018 GMT
            Not After : Jan 22 12:54:53 2019 GMT
        Subject: C=DE, ST=Hessen, O=privacyidea, CN=requester.localdomain
        Subject Public Key Info:
            Public Key Algorithm: rsaEncryption
                Public-Key: (2048 bit)
                Modulus:
                    00:cd:be:14:4f:fa:ce:01:3f:42:22:1b:1d:9c:af:
                    dd:92:d2:7f:db:6c:b7:3e:39:43:43:6b:13:03:f1:
                    05:f4:07:74:bc:76:69:28:0b:af:19:8e:d7:fc:e3:
                    cd:c6:58:f2:ca:7f:08:6d:53:fc:07:02:44:24:c6:
                    b4:34:4c:8c:04:fe:33:0e:40:e2:20:ba:02:73:5a:
                    f7:f5:4f:63:6e:cc:c6:b6:df:54:1d:37:39:7d:51:
                    36:26:5f:bd:dc:3f:a8:8b:6b:a2:ae:b6:9d:d6:21:
                    e7:df:41:b8:7a:28:2a:68:48:ca:a8:2d:ed:e1:e9:
                    46:5e:5a:72:6d:b4:84:38:87:91:fd:94:11:0b:28:
                    84:c6:c2:2f:2a:fb:01:f9:36:7a:09:75:d1:33:88:
                    3c:73:41:5b:c8:bf:94:89:70:a1:f0:c0:b9:2e:50:
                    53:1e:b1:17:64:69:f4:2d:81:e0:a9:0d:0e:32:e9:
                    ba:55:8a:85:f1:1b:6f:49:79:b4:7f:88:c3:0d:3e:
                    54:88:9b:3d:1f:38:8c:04:f3:ee:6a:63:2b:f5:c6:
                    db:b4:83:aa:c4:78:41:3a:7d:4b:e1:c8:3e:71:ca:
                    1b:61:59:ea:c6:c4:ca:32:5e:c9:e9:bf:12:29:e6:
                    c6:c3:63:fe:a0:55:da:7a:f1:60:98:4d:26:ed:fa:
                    70:2d
                Exponent: 65537 (0x10001)
        X509v3 extensions:
            X509v3 Key Usage: 
                Digital Signature, Key Encipherment
            X509v3 Basic Constraints: 
                CA:FALSE
            Netscape Cert Type: 
                SSL Server
            Netscape Comment: 
                OpenSSL Generated Server Certificate
            X509v3 Subject Key Identifier: 
                53:3F:ED:5D:09:07:B3:65:7B:AB:45:C9:24:5B:09:77:80:0A:96:ED
            X509v3 Authority Key Identifier: 
                keyid:F4:A7:C0:CC:91:46:AF:64:F3:91:F2:27:F8:C8:B2:6F:8A:87:32:73
                DirName:/C=DE/ST=Hessen/O=privacyidea/CN=CA001
                serial:FB:C8:EB:AC:83:CD:12:07

            X509v3 Extended Key Usage: 
                TLS Web Server Authentication
    Signature Algorithm: sha256WithRSAEncryption
         54:0a:3a:9d:67:fd:23:1c:49:ba:7a:de:60:9c:21:2f:1b:0a:
         2c:8b:a1:12:37:64:c4:82:fc:28:d6:f8:c4:41:ab:79:1b:e6:
         a6:45:8f:bf:e4:ce:ea:b0:a6:95:04:cd:3f:86:84:d3:bb:51:
         df:b0:29:21:1a:91:8a:d8:73:59:0f:6b:a4:38:a2:7f:5c:dd:
         92:d4:a2:41:a5:d5:49:c3:52:7c:3a:61:b2:c4:3a:59:3b:57:
         f4:73:31:be:e4:c9:0b:b9:12:a0:6e:c7:88:10:be:35:e8:55:
         52:24:35:1f:82:ee:79:17:20:23:32:7a:47:e2:36:ef:c1:41:
         fd:8d:aa:18:ee:58:0c:d0:41:d1:0d:ba:83:f0:c5:7e:11:6c:
         5c:df:29:ae:56:bf:52:50:82:21:57:e7:e5:7e:a2:50:80:60:
         58:43:e7:73:09:61:e5:1e:3f:88:a3:9d:60:95:d4:c4:b5:9b:
         da:d2:3a:03:0b:10:32:3c:c3:15:54:48:26:bb:a1:df:d5:cc:
         55:6e:ab:a6:d7:b1:7f:d4:79:88:30:67:be:12:32:88:32:91:
         f5:53:2c:d0:4e:34:dd:c4:08:6f:ef:36:65:5f:e9:b2:13:ac:
         08:5f:51:20:dd:b0:42:4e:37:2e:4c:7b:3f:8c:d7:c3:6a:ed:
         ab:37:ed:30
-----BEGIN CERTIFICATE-----
MIIEJjCCAw6gAwIBAgIEEAAA0DANBgkqhkiG9w0BAQsFADBEMQswCQYDVQQGEwJE
RTEPMA0GA1UECAwGSGVzc2VuMRQwEgYDVQQKDAtwcml2YWN5aWRlYTEOMAwGA1UE
AwwFQ0EwMDEwHhcNMTgwMTIyMTI1NDUzWhcNMTkwMTIyMTI1NDUzWjBUMQswCQYD
VQQGEwJERTEPMA0GA1UECAwGSGVzc2VuMRQwEgYDVQQKDAtwcml2YWN5aWRlYTEe
MBwGA1UEAwwVcmVxdWVzdGVyLmxvY2FsZG9tYWluMIIBIjANBgkqhkiG9w0BAQEF
AAOCAQ8AMIIBCgKCAQEAzb4UT/rOAT9CIhsdnK/dktJ/22y3PjlDQ2sTA/EF9Ad0
vHZpKAuvGY7X/OPNxljyyn8IbVP8BwJEJMa0NEyMBP4zDkDiILoCc1r39U9jbszG
tt9UHTc5fVE2Jl+93D+oi2uirrad1iHn30G4eigqaEjKqC3t4elGXlpybbSEOIeR
/ZQRCyiExsIvKvsB+TZ6CXXRM4g8c0FbyL+UiXCh8MC5LlBTHrEXZGn0LYHgqQ0O
Mum6VYqF8RtvSXm0f4jDDT5UiJs9HziMBPPuamMr9cbbtIOqxHhBOn1L4cg+ccob
YVnqxsTKMl7J6b8SKebGw2P+oFXaevFgmE0m7fpwLQIDAQABo4IBDjCCAQowCwYD
VR0PBAQDAgWgMAkGA1UdEwQCMAAwEQYJYIZIAYb4QgEBBAQDAgZAMDMGCWCGSAGG
+EIBDQQmFiRPcGVuU1NMIEdlbmVyYXRlZCBTZXJ2ZXIgQ2VydGlmaWNhdGUwHQYD
VR0OBBYEFFM/7V0JB7Nle6tFySRbCXeACpbtMHQGA1UdIwRtMGuAFPSnwMyRRq9k
85HyJ/jIsm+KhzJzoUikRjBEMQswCQYDVQQGEwJERTEPMA0GA1UECAwGSGVzc2Vu
MRQwEgYDVQQKDAtwcml2YWN5aWRlYTEOMAwGA1UEAwwFQ0EwMDGCCQD7yOusg80S
BzATBgNVHSUEDDAKBggrBgEFBQcDATANBgkqhkiG9w0BAQsFAAOCAQEAVAo6nWf9
IxxJunreYJwhLxsKLIuhEjdkxIL8KNb4xEGreRvmpkWPv+TO6rCmlQTNP4aE07tR
37ApIRqRithzWQ9rpDiif1zdktSiQaXVScNSfDphssQ6WTtX9HMxvuTJC7kSoG7H
iBC+NehVUiQ1H4LueRcgIzJ6R+I278FB/Y2qGO5YDNBB0Q26g/DFfhFsXN8prla/
UlCCIVfn5X6iUIBgWEPncwlh5R4/iKOdYJXUxLWb2tI6AwsQMjzDFVRIJruh39XM
VW6rptexf9R5iDBnvhIyiDKR9VMs0E403cQIb+82ZV/pshOsCF9RIN2wQk43Lkx7
P4zXw2rtqzftMA==
-----END CERTIFICATE-----
