(dp1
S'RegisterEditor'
p2
S'\n.. function:: wx.propgrid.RegisterEditor(editor, editorName)\n\n\n\n   .. deprecated:: 4.0.0\n      Use PropertyGrid.DoRegisterEditor instead\n\n'
p3
sS'PGGetDefaultImageWildcard'
p4
S'\n.. function:: wx.propgrid.PGGetDefaultImageWildcard()\n\n\n\n   :rtype: `string`\n\n\n\n\n\n'
p5
s.