Certificate:
    Data:
        Version: 3 (0x2)
        Serial Number: 268435666 (0x100000d2)
    Signature Algorithm: sha256WithRSAEncryption
        Issuer: C=DE, ST=Hessen, O=privacyidea, CN=CA001
        Validity
            Not Before: Jan 22 12:57:52 2018 GMT
            Not After : Jan 22 12:57:52 2019 GMT
        Subject: C=DE, ST=Hessen, O=privacyidea, CN=requester.localdomain
        Subject Public Key Info:
            Public Key Algorithm: rsaEncryption
                Public-Key: (2048 bit)
                Modulus:
                    00:cd:be:14:4f:fa:ce:01:3f:42:22:1b:1d:9c:af:
                    dd:92:d2:7f:db:6c:b7:3e:39:43:43:6b:13:03:f1:
                    05:f4:07:74:bc:76:69:28:0b:af:19:8e:d7:fc:e3:
                    cd:c6:58:f2:ca:7f:08:6d:53:fc:07:02:44:24:c6:
                    b4:34:4c:8c:04:fe:33:0e:40:e2:20:ba:02:73:5a:
                    f7:f5:4f:63:6e:cc:c6:b6:df:54:1d:37:39:7d:51:
                    36:26:5f:bd:dc:3f:a8:8b:6b:a2:ae:b6:9d:d6:21:
                    e7:df:41:b8:7a:28:2a:68:48:ca:a8:2d:ed:e1:e9:
                    46:5e:5a:72:6d:b4:84:38:87:91:fd:94:11:0b:28:
                    84:c6:c2:2f:2a:fb:01:f9:36:7a:09:75:d1:33:88:
                    3c:73:41:5b:c8:bf:94:89:70:a1:f0:c0:b9:2e:50:
                    53:1e:b1:17:64:69:f4:2d:81:e0:a9:0d:0e:32:e9:
                    ba:55:8a:85:f1:1b:6f:49:79:b4:7f:88:c3:0d:3e:
                    54:88:9b:3d:1f:38:8c:04:f3:ee:6a:63:2b:f5:c6:
                    db:b4:83:aa:c4:78:41:3a:7d:4b:e1:c8:3e:71:ca:
                    1b:61:59:ea:c6:c4:ca:32:5e:c9:e9:bf:12:29:e6:
                    c6:c3:63:fe:a0:55:da:7a:f1:60:98:4d:26:ed:fa:
                    70:2d
                Exponent: 65537 (0x10001)
        X509v3 extensions:
            X509v3 Key Usage: 
                Digital Signature, Key Encipherment
            X509v3 Basic Constraints: 
                CA:FALSE
            Netscape Cert Type: 
                SSL Server
            Netscape Comment: 
                OpenSSL Generated Server Certificate
            X509v3 Subject Key Identifier: 
                53:3F:ED:5D:09:07:B3:65:7B:AB:45:C9:24:5B:09:77:80:0A:96:ED
            X509v3 Authority Key Identifier: 
                keyid:F4:A7:C0:CC:91:46:AF:64:F3:91:F2:27:F8:C8:B2:6F:8A:87:32:73
                DirName:/C=DE/ST=Hessen/O=privacyidea/CN=CA001
                serial:FB:C8:EB:AC:83:CD:12:07

            X509v3 Extended Key Usage: 
                TLS Web Server Authentication
    Signature Algorithm: sha256WithRSAEncryption
         7a:33:f1:8e:48:ac:a9:0a:e4:e1:43:26:72:1c:98:d6:f3:44:
         c7:23:de:14:be:84:a5:3e:db:51:a9:80:7d:87:5d:2e:53:9e:
         51:01:c6:7f:5b:88:b4:9a:f9:0a:51:71:11:0e:e7:f4:63:fe:
         10:2e:f7:a1:66:60:ef:b7:a9:ef:8c:2f:f9:33:ed:55:aa:1f:
         de:9d:78:40:1c:db:67:1d:fa:23:31:45:22:13:c5:dd:50:62:
         fe:c8:43:85:5c:c8:0d:4b:64:67:7c:eb:e1:eb:8e:5c:18:f4:
         ec:f1:af:35:5c:2d:3b:5d:66:5f:ca:d4:4b:63:cc:8f:a0:25:
         79:a4:94:b2:7a:7f:d4:d7:3c:b3:63:c5:69:5d:eb:45:23:f5:
         cd:dd:cf:05:5b:e6:04:6d:ae:82:f0:be:fd:9f:c2:e0:f5:d7:
         f2:26:ff:b5:63:56:30:a6:24:45:2f:ba:42:ed:87:d1:2d:80:
         1e:7d:3c:37:b3:9d:50:dd:4c:49:f2:f1:28:eb:b7:c5:8f:68:
         c1:17:5a:f2:20:97:41:85:3f:33:85:46:81:8d:31:8a:3f:aa:
         77:be:87:6d:b9:15:81:95:40:a9:29:a7:90:0b:2e:80:69:c7:
         83:cb:62:85:2a:27:9e:69:61:1d:f8:76:85:be:c9:4f:bb:51:
         f9:91:5a:a5
-----BEGIN CERTIFICATE-----
MIIEJjCCAw6gAwIBAgIEEAAA0jANBgkqhkiG9w0BAQsFADBEMQswCQYDVQQGEwJE
RTEPMA0GA1UECAwGSGVzc2VuMRQwEgYDVQQKDAtwcml2YWN5aWRlYTEOMAwGA1UE
AwwFQ0EwMDEwHhcNMTgwMTIyMTI1NzUyWhcNMTkwMTIyMTI1NzUyWjBUMQswCQYD
VQQGEwJERTEPMA0GA1UECAwGSGVzc2VuMRQwEgYDVQQKDAtwcml2YWN5aWRlYTEe
MBwGA1UEAwwVcmVxdWVzdGVyLmxvY2FsZG9tYWluMIIBIjANBgkqhkiG9w0BAQEF
AAOCAQ8AMIIBCgKCAQEAzb4UT/rOAT9CIhsdnK/dktJ/22y3PjlDQ2sTA/EF9Ad0
vHZpKAuvGY7X/OPNxljyyn8IbVP8BwJEJMa0NEyMBP4zDkDiILoCc1r39U9jbszG
tt9UHTc5fVE2Jl+93D+oi2uirrad1iHn30G4eigqaEjKqC3t4elGXlpybbSEOIeR
/ZQRCyiExsIvKvsB+TZ6CXXRM4g8c0FbyL+UiXCh8MC5LlBTHrEXZGn0LYHgqQ0O
Mum6VYqF8RtvSXm0f4jDDT5UiJs9HziMBPPuamMr9cbbtIOqxHhBOn1L4cg+ccob
YVnqxsTKMl7J6b8SKebGw2P+oFXaevFgmE0m7fpwLQIDAQABo4IBDjCCAQowCwYD
VR0PBAQDAgWgMAkGA1UdEwQCMAAwEQYJYIZIAYb4QgEBBAQDAgZAMDMGCWCGSAGG
+EIBDQQmFiRPcGVuU1NMIEdlbmVyYXRlZCBTZXJ2ZXIgQ2VydGlmaWNhdGUwHQYD
VR0OBBYEFFM/7V0JB7Nle6tFySRbCXeACpbtMHQGA1UdIwRtMGuAFPSnwMyRRq9k
85HyJ/jIsm+KhzJzoUikRjBEMQswCQYDVQQGEwJERTEPMA0GA1UECAwGSGVzc2Vu
MRQwEgYDVQQKDAtwcml2YWN5aWRlYTEOMAwGA1UEAwwFQ0EwMDGCCQD7yOusg80S
BzATBgNVHSUEDDAKBggrBgEFBQcDATANBgkqhkiG9w0BAQsFAAOCAQEAejPxjkis
qQrk4UMmchyY1vNExyPeFL6EpT7bUamAfYddLlOeUQHGf1uItJr5ClFxEQ7n9GP+
EC73oWZg77ep74wv+TPtVaof3p14QBzbZx36IzFFIhPF3VBi/shDhVzIDUtkZ3zr
4euOXBj07PGvNVwtO11mX8rUS2PMj6AleaSUsnp/1Nc8s2PFaV3rRSP1zd3PBVvm
BG2ugvC+/Z/C4PXX8ib/tWNWMKYkRS+6Qu2H0S2AHn08N7OdUN1MSfLxKOu3xY9o
wRda8iCXQYU/M4VGgY0xij+qd76HbbkVgZVAqSmnkAsugGnHg8tihSonnmlhHfh2
hb7JT7tR+ZFapQ==
-----END CERTIFICATE-----
