Certificate:
    Data:
        Version: 3 (0x2)
        Serial Number: 268435668 (0x100000d4)
    Signature Algorithm: sha256WithRSAEncryption
        Issuer: C=DE, ST=Hessen, O=privacyidea, CN=CA001
        Validity
            Not Before: Feb  9 14:57:16 2018 GMT
            Not After : Feb 29 14:57:16 2020 GMT
        Subject: CN=Steve Test/emailAddress=steve@openssl.org
        Subject Public Key Info:
            Public Key Algorithm: rsaEncryption
                Public-Key: (2048 bit)
                Modulus:
                    00:d2:81:89:20:51:48:0f:73:f4:11:32:24:d5:1f:
                    1c:fd:5c:f5:b6:e6:c5:f0:52:81:dc:d2:af:66:4a:
                    7c:93:31:61:5c:af:d1:6d:06:70:03:60:7c:72:0c:
                    88:dd:49:cd:9e:02:6c:d2:5a:d7:53:0f:f3:da:be:
                    69:64:b5:0f:0c:00:e3:b3:50:47:a3:b3:9b:ba:13:
                    50:d6:58:5a:4b:ab:39:e0:11:ca:0a:27:67:03:78:
                    22:66:6d:92:1e:1b:5c:49:ae:e6:6b:d1:8e:3b:9d:
                    06:d3:c6:ac:4d:53:43:10:ab:e8:96:c1:87:82:97:
                    99:8f:20:d3:99:12:37:31:84:e1:8a:ff:29:03:5f:
                    22:90:3e:7f:9b:e0:20:c1:ad:dc:ae:4c:39:1a:31:
                    96:17:02:8c:b2:d9:b4:0d:20:12:9b:7d:86:54:fd:
                    33:fd:c1:2a:62:46:f8:60:96:cf:6e:01:6f:22:df:
                    13:47:e7:97:ec:05:72:23:a3:62:f8:fa:ef:ac:9c:
                    72:f0:37:cb:2f:37:cf:90:a8:27:51:86:c6:d7:78:
                    08:8f:7e:25:a2:15:70:a2:fb:1c:b6:15:5e:a0:97:
                    8b:81:4c:09:28:8a:27:3b:94:bc:71:db:5b:71:37:
                    9a:2b:16:e0:6f:b5:c9:f5:4b:4f:20:ba:65:cf:af:
                    ad:ad
                Exponent: 65537 (0x10001)
        X509v3 extensions:
            X509v3 Key Usage: 
                Digital Signature, Key Encipherment
            X509v3 Basic Constraints: 
                CA:FALSE
            Netscape Cert Type: 
                SSL Server
            Netscape Comment: 
                OpenSSL Generated Server Certificate
            X509v3 Subject Key Identifier: 
                E5:25:6D:3E:AF:0D:DD:3F:4C:F2:45:19:39:D5:14:DB:7E:9C:C0:AD
            X509v3 Authority Key Identifier: 
                keyid:F4:A7:C0:CC:91:46:AF:64:F3:91:F2:27:F8:C8:B2:6F:8A:87:32:73
                DirName:/C=DE/ST=Hessen/O=privacyidea/CN=CA001
                serial:FB:C8:EB:AC:83:CD:12:07

            X509v3 Extended Key Usage: 
                TLS Web Server Authentication
    Signature Algorithm: sha256WithRSAEncryption
         20:31:92:e9:90:5a:4d:99:0a:28:d1:8f:b9:4c:36:80:3c:8c:
         73:e1:c3:f0:84:1e:8f:5b:f2:af:3c:c0:49:be:f2:e6:5e:85:
         33:c0:a2:f6:87:d1:ff:40:50:6b:0f:6d:c1:75:90:af:ed:b9:
         4f:0c:be:44:21:b6:f9:31:b3:92:e4:e1:c5:77:e9:b6:9b:0d:
         c0:d6:40:29:f0:a3:6f:b5:0b:0e:1f:dc:89:62:d2:1f:cc:8f:
         47:38:ef:31:7b:84:78:07:da:b0:02:bb:8a:82:d0:b4:92:0c:
         87:cb:4c:02:45:c1:58:4d:98:b9:31:a6:33:7a:06:15:02:90:
         0c:cb:1f:15:9d:61:e5:68:9f:14:ae:77:07:69:30:b5:8e:b9:
         17:3a:68:a7:60:ef:8f:d8:91:e5:e8:7a:7d:f5:78:96:01:31:
         f9:3c:78:ce:ef:5f:e9:41:11:22:07:93:fe:10:3e:a2:63:c9:
         c2:c0:18:bd:e5:de:62:29:4e:e3:99:24:26:ab:f0:48:a0:66:
         04:e3:f2:a4:79:bc:47:7b:99:3f:70:f7:a5:c8:32:c3:d8:68:
         12:53:ae:b5:8b:59:9f:93:0a:96:a6:3b:3f:41:18:5c:ed:89:
         a5:64:ae:ce:f3:de:b9:75:77:35:e2:5b:ef:c4:26:6c:e5:92:
         cf:91:3c:4c
-----BEGIN CERTIFICATE-----
MIIECTCCAvGgAwIBAgIEEAAA1DANBgkqhkiG9w0BAQsFADBEMQswCQYDVQQGEwJE
RTEPMA0GA1UECAwGSGVzc2VuMRQwEgYDVQQKDAtwcml2YWN5aWRlYTEOMAwGA1UE
AwwFQ0EwMDEwHhcNMTgwMjA5MTQ1NzE2WhcNMjAwMjI5MTQ1NzE2WjA3MRMwEQYD
VQQDDApTdGV2ZSBUZXN0MSAwHgYJKoZIhvcNAQkBFhFzdGV2ZUBvcGVuc3NsLm9y
ZzCCASIwDQYJKoZIhvcNAQEBBQADggEPADCCAQoCggEBANKBiSBRSA9z9BEyJNUf
HP1c9bbmxfBSgdzSr2ZKfJMxYVyv0W0GcANgfHIMiN1JzZ4CbNJa11MP89q+aWS1
DwwA47NQR6Ozm7oTUNZYWkurOeARygonZwN4ImZtkh4bXEmu5mvRjjudBtPGrE1T
QxCr6JbBh4KXmY8g05kSNzGE4Yr/KQNfIpA+f5vgIMGt3K5MORoxlhcCjLLZtA0g
Ept9hlT9M/3BKmJG+GCWz24BbyLfE0fnl+wFciOjYvj676yccvA3yy83z5CoJ1GG
xtd4CI9+JaIVcKL7HLYVXqCXi4FMCSiKJzuUvHHbW3E3misW4G+1yfVLTyC6Zc+v
ra0CAwEAAaOCAQ4wggEKMAsGA1UdDwQEAwIFoDAJBgNVHRMEAjAAMBEGCWCGSAGG
+EIBAQQEAwIGQDAzBglghkgBhvhCAQ0EJhYkT3BlblNTTCBHZW5lcmF0ZWQgU2Vy
dmVyIENlcnRpZmljYXRlMB0GA1UdDgQWBBTlJW0+rw3dP0zyRRk51RTbfpzArTB0
BgNVHSMEbTBrgBT0p8DMkUavZPOR8if4yLJviocyc6FIpEYwRDELMAkGA1UEBhMC
REUxDzANBgNVBAgMBkhlc3NlbjEUMBIGA1UECgwLcHJpdmFjeWlkZWExDjAMBgNV
BAMMBUNBMDAxggkA+8jrrIPNEgcwEwYDVR0lBAwwCgYIKwYBBQUHAwEwDQYJKoZI
hvcNAQELBQADggEBACAxkumQWk2ZCijRj7lMNoA8jHPhw/CEHo9b8q88wEm+8uZe
hTPAovaH0f9AUGsPbcF1kK/tuU8MvkQhtvkxs5Lk4cV36babDcDWQCnwo2+1Cw4f
3Ili0h/Mj0c47zF7hHgH2rACu4qC0LSSDIfLTAJFwVhNmLkxpjN6BhUCkAzLHxWd
YeVonxSudwdpMLWOuRc6aKdg74/YkeXoen31eJYBMfk8eM7vX+lBESIHk/4QPqJj
ycLAGL3l3mIpTuOZJCar8EigZgTj8qR5vEd7mT9w96XIMsPYaBJTrrWLWZ+TCpam
Oz9BGFztiaVkrs7z3rl1dzXiW+/EJmzlks+RPEw=
-----END CERTIFICATE-----
