Certificate:
    Data:
        Version: 3 (0x2)
        Serial Number: 268435664 (0x100000d0)
    Signature Algorithm: sha256WithRSAEncryption
        Issuer: C=DE, ST=Hessen, O=privacyidea, CN=CA001
        Validity
            Not Before: Feb  9 14:54:43 2018 GMT
            Not After : Feb  9 14:54:43 2019 GMT
        Subject: C=DE, ST=Hessen, O=privacyidea, CN=requester.localdomain
        Subject Public Key Info:
            Public Key Algorithm: rsaEncryption
                Public-Key: (2048 bit)
                Modulus:
                    00:cd:be:14:4f:fa:ce:01:3f:42:22:1b:1d:9c:af:
                    dd:92:d2:7f:db:6c:b7:3e:39:43:43:6b:13:03:f1:
                    05:f4:07:74:bc:76:69:28:0b:af:19:8e:d7:fc:e3:
                    cd:c6:58:f2:ca:7f:08:6d:53:fc:07:02:44:24:c6:
                    b4:34:4c:8c:04:fe:33:0e:40:e2:20:ba:02:73:5a:
                    f7:f5:4f:63:6e:cc:c6:b6:df:54:1d:37:39:7d:51:
                    36:26:5f:bd:dc:3f:a8:8b:6b:a2:ae:b6:9d:d6:21:
                    e7:df:41:b8:7a:28:2a:68:48:ca:a8:2d:ed:e1:e9:
                    46:5e:5a:72:6d:b4:84:38:87:91:fd:94:11:0b:28:
                    84:c6:c2:2f:2a:fb:01:f9:36:7a:09:75:d1:33:88:
                    3c:73:41:5b:c8:bf:94:89:70:a1:f0:c0:b9:2e:50:
                    53:1e:b1:17:64:69:f4:2d:81:e0:a9:0d:0e:32:e9:
                    ba:55:8a:85:f1:1b:6f:49:79:b4:7f:88:c3:0d:3e:
                    54:88:9b:3d:1f:38:8c:04:f3:ee:6a:63:2b:f5:c6:
                    db:b4:83:aa:c4:78:41:3a:7d:4b:e1:c8:3e:71:ca:
                    1b:61:59:ea:c6:c4:ca:32:5e:c9:e9:bf:12:29:e6:
                    c6:c3:63:fe:a0:55:da:7a:f1:60:98:4d:26:ed:fa:
                    70:2d
                Exponent: 65537 (0x10001)
        X509v3 extensions:
            X509v3 Key Usage: 
                Digital Signature, Key Encipherment
            X509v3 Basic Constraints: 
                CA:FALSE
            Netscape Cert Type: 
                SSL Server
            Netscape Comment: 
                OpenSSL Generated Server Certificate
            X509v3 Subject Key Identifier: 
                53:3F:ED:5D:09:07:B3:65:7B:AB:45:C9:24:5B:09:77:80:0A:96:ED
            X509v3 Authority Key Identifier: 
                keyid:F4:A7:C0:CC:91:46:AF:64:F3:91:F2:27:F8:C8:B2:6F:8A:87:32:73
                DirName:/C=DE/ST=Hessen/O=privacyidea/CN=CA001
                serial:FB:C8:EB:AC:83:CD:12:07

            X509v3 Extended Key Usage: 
                TLS Web Server Authentication
    Signature Algorithm: sha256WithRSAEncryption
         0f:35:32:fb:5a:2d:c5:6c:7d:d0:98:f9:38:ac:06:9c:84:04:
         a2:3e:3e:32:3a:12:e9:c2:5e:93:33:34:58:22:c1:70:32:2f:
         7c:14:0a:25:a4:ba:a2:e4:55:a7:a1:76:f1:37:af:a2:ac:b7:
         ef:49:42:2b:83:8b:a4:0a:65:a8:f2:0c:a3:42:77:62:f9:ca:
         02:35:2d:d4:84:ac:ad:ba:ef:b2:e6:72:8a:83:11:0a:d1:10:
         83:34:31:e9:d7:5e:75:e0:99:03:a6:a0:b9:c0:5b:2d:00:1e:
         8d:d6:4a:05:8f:eb:a2:9a:b3:79:54:38:c8:30:05:27:07:37:
         3c:14:2c:84:b1:f8:80:65:db:2f:93:cf:dc:8b:bf:ba:b0:62:
         39:5c:58:77:98:9b:99:f9:87:92:fd:92:45:8c:29:53:42:0a:
         55:91:9b:f8:12:84:72:bc:42:e0:4c:59:a5:17:30:b3:80:c6:
         a9:a9:84:23:bf:32:79:09:58:6a:2c:a6:69:83:6b:73:53:4b:
         4a:7c:71:ca:11:0b:dc:a0:38:91:93:b8:39:b7:b7:ff:15:ae:
         76:71:37:72:58:e1:79:ab:48:86:da:15:ad:1e:88:51:5b:0f:
         ea:ec:ab:e4:0d:c9:3e:1d:54:43:99:73:9e:94:e3:ff:70:b1:
         db:ca:50:65
-----BEGIN CERTIFICATE-----
MIIEJjCCAw6gAwIBAgIEEAAA0DANBgkqhkiG9w0BAQsFADBEMQswCQYDVQQGEwJE
RTEPMA0GA1UECAwGSGVzc2VuMRQwEgYDVQQKDAtwcml2YWN5aWRlYTEOMAwGA1UE
AwwFQ0EwMDEwHhcNMTgwMjA5MTQ1NDQzWhcNMTkwMjA5MTQ1NDQzWjBUMQswCQYD
VQQGEwJERTEPMA0GA1UECAwGSGVzc2VuMRQwEgYDVQQKDAtwcml2YWN5aWRlYTEe
MBwGA1UEAwwVcmVxdWVzdGVyLmxvY2FsZG9tYWluMIIBIjANBgkqhkiG9w0BAQEF
AAOCAQ8AMIIBCgKCAQEAzb4UT/rOAT9CIhsdnK/dktJ/22y3PjlDQ2sTA/EF9Ad0
vHZpKAuvGY7X/OPNxljyyn8IbVP8BwJEJMa0NEyMBP4zDkDiILoCc1r39U9jbszG
tt9UHTc5fVE2Jl+93D+oi2uirrad1iHn30G4eigqaEjKqC3t4elGXlpybbSEOIeR
/ZQRCyiExsIvKvsB+TZ6CXXRM4g8c0FbyL+UiXCh8MC5LlBTHrEXZGn0LYHgqQ0O
Mum6VYqF8RtvSXm0f4jDDT5UiJs9HziMBPPuamMr9cbbtIOqxHhBOn1L4cg+ccob
YVnqxsTKMl7J6b8SKebGw2P+oFXaevFgmE0m7fpwLQIDAQABo4IBDjCCAQowCwYD
VR0PBAQDAgWgMAkGA1UdEwQCMAAwEQYJYIZIAYb4QgEBBAQDAgZAMDMGCWCGSAGG
+EIBDQQmFiRPcGVuU1NMIEdlbmVyYXRlZCBTZXJ2ZXIgQ2VydGlmaWNhdGUwHQYD
VR0OBBYEFFM/7V0JB7Nle6tFySRbCXeACpbtMHQGA1UdIwRtMGuAFPSnwMyRRq9k
85HyJ/jIsm+KhzJzoUikRjBEMQswCQYDVQQGEwJERTEPMA0GA1UECAwGSGVzc2Vu
MRQwEgYDVQQKDAtwcml2YWN5aWRlYTEOMAwGA1UEAwwFQ0EwMDGCCQD7yOusg80S
BzATBgNVHSUEDDAKBggrBgEFBQcDATANBgkqhkiG9w0BAQsFAAOCAQEADzUy+1ot
xWx90Jj5OKwGnIQEoj4+MjoS6cJekzM0WCLBcDIvfBQKJaS6ouRVp6F28Tevoqy3
70lCK4OLpAplqPIMo0J3YvnKAjUt1ISsrbrvsuZyioMRCtEQgzQx6ddedeCZA6ag
ucBbLQAejdZKBY/ropqzeVQ4yDAFJwc3PBQshLH4gGXbL5PP3Iu/urBiOVxYd5ib
mfmHkv2SRYwpU0IKVZGb+BKEcrxC4ExZpRcws4DGqamEI78yeQlYaiymaYNrc1NL
SnxxyhEL3KA4kZO4Obe3/xWudnE3cljheatIhtoVrR6IUVsP6uyr5A3JPh1UQ5lz
npTj/3Cx28pQZQ==
-----END CERTIFICATE-----
