Certificate:
    Data:
        Version: 3 (0x2)
        Serial Number: 268435667 (0x100000d3)
    Signature Algorithm: sha256WithRSAEncryption
        Issuer: C=DE, ST=Hessen, O=privacyidea, CN=CA001
        Validity
            Not Before: Feb  9 14:57:15 2018 GMT
            Not After : Feb  9 14:57:15 2019 GMT
        Subject: CN=Steve Test/emailAddress=steve@openssl.org
        Subject Public Key Info:
            Public Key Algorithm: rsaEncryption
                Public-Key: (2048 bit)
                Modulus:
                    00:d2:81:89:20:51:48:0f:73:f4:11:32:24:d5:1f:
                    1c:fd:5c:f5:b6:e6:c5:f0:52:81:dc:d2:af:66:4a:
                    7c:93:31:61:5c:af:d1:6d:06:70:03:60:7c:72:0c:
                    88:dd:49:cd:9e:02:6c:d2:5a:d7:53:0f:f3:da:be:
                    69:64:b5:0f:0c:00:e3:b3:50:47:a3:b3:9b:ba:13:
                    50:d6:58:5a:4b:ab:39:e0:11:ca:0a:27:67:03:78:
                    22:66:6d:92:1e:1b:5c:49:ae:e6:6b:d1:8e:3b:9d:
                    06:d3:c6:ac:4d:53:43:10:ab:e8:96:c1:87:82:97:
                    99:8f:20:d3:99:12:37:31:84:e1:8a:ff:29:03:5f:
                    22:90:3e:7f:9b:e0:20:c1:ad:dc:ae:4c:39:1a:31:
                    96:17:02:8c:b2:d9:b4:0d:20:12:9b:7d:86:54:fd:
                    33:fd:c1:2a:62:46:f8:60:96:cf:6e:01:6f:22:df:
                    13:47:e7:97:ec:05:72:23:a3:62:f8:fa:ef:ac:9c:
                    72:f0:37:cb:2f:37:cf:90:a8:27:51:86:c6:d7:78:
                    08:8f:7e:25:a2:15:70:a2:fb:1c:b6:15:5e:a0:97:
                    8b:81:4c:09:28:8a:27:3b:94:bc:71:db:5b:71:37:
                    9a:2b:16:e0:6f:b5:c9:f5:4b:4f:20:ba:65:cf:af:
                    ad:ad
                Exponent: 65537 (0x10001)
        X509v3 extensions:
            X509v3 Key Usage: 
                Digital Signature, Key Encipherment
            X509v3 Basic Constraints: 
                CA:FALSE
            Netscape Cert Type: 
                SSL Server
            Netscape Comment: 
                OpenSSL Generated Server Certificate
            X509v3 Subject Key Identifier: 
                E5:25:6D:3E:AF:0D:DD:3F:4C:F2:45:19:39:D5:14:DB:7E:9C:C0:AD
            X509v3 Authority Key Identifier: 
                keyid:F4:A7:C0:CC:91:46:AF:64:F3:91:F2:27:F8:C8:B2:6F:8A:87:32:73
                DirName:/C=DE/ST=Hessen/O=privacyidea/CN=CA001
                serial:FB:C8:EB:AC:83:CD:12:07

            X509v3 Extended Key Usage: 
                TLS Web Server Authentication
    Signature Algorithm: sha256WithRSAEncryption
         4d:56:f8:83:fb:20:c1:59:1f:15:8a:22:63:11:82:90:be:42:
         51:04:08:99:82:be:cf:8e:7d:67:0b:10:69:0d:57:3c:81:90:
         fb:36:b6:ea:7d:ef:ba:48:9b:e9:da:a4:5b:fa:66:c6:a2:1f:
         b5:15:d0:28:97:3c:1d:21:e7:eb:04:ed:4c:db:b3:00:78:11:
         4f:ba:f3:e3:ab:42:11:8c:7d:8f:0c:6d:93:81:49:0d:79:77:
         3d:4c:b9:6b:ce:63:a6:3e:4d:d3:1f:ba:e4:d2:ea:c5:5a:05:
         a3:cf:76:24:b2:b4:15:76:5c:39:c5:70:b1:a4:fa:55:cd:60:
         aa:20:76:00:71:31:d7:1d:99:37:ed:cc:ab:15:9d:93:91:29:
         cc:8b:17:e9:8e:8b:c2:17:60:49:8d:cc:81:23:0d:de:a5:92:
         95:7d:9e:38:70:a5:5d:3b:67:fd:52:a0:3e:19:ef:aa:7f:94:
         d2:03:fa:dc:fc:48:29:cc:1b:d8:86:dc:12:68:59:02:c1:6b:
         d8:f7:5c:6a:ce:ea:f6:64:92:8d:a4:e1:4a:5d:d0:83:00:ee:
         2c:ce:e2:3b:83:46:c1:68:96:f1:c3:27:a5:01:1e:96:a6:5d:
         d7:ee:00:7d:02:b9:f8:5b:3b:69:8e:04:ed:a2:7c:9b:79:52:
         65:17:3b:3d
-----BEGIN CERTIFICATE-----
MIIECTCCAvGgAwIBAgIEEAAA0zANBgkqhkiG9w0BAQsFADBEMQswCQYDVQQGEwJE
RTEPMA0GA1UECAwGSGVzc2VuMRQwEgYDVQQKDAtwcml2YWN5aWRlYTEOMAwGA1UE
AwwFQ0EwMDEwHhcNMTgwMjA5MTQ1NzE1WhcNMTkwMjA5MTQ1NzE1WjA3MRMwEQYD
VQQDDApTdGV2ZSBUZXN0MSAwHgYJKoZIhvcNAQkBFhFzdGV2ZUBvcGVuc3NsLm9y
ZzCCASIwDQYJKoZIhvcNAQEBBQADggEPADCCAQoCggEBANKBiSBRSA9z9BEyJNUf
HP1c9bbmxfBSgdzSr2ZKfJMxYVyv0W0GcANgfHIMiN1JzZ4CbNJa11MP89q+aWS1
DwwA47NQR6Ozm7oTUNZYWkurOeARygonZwN4ImZtkh4bXEmu5mvRjjudBtPGrE1T
QxCr6JbBh4KXmY8g05kSNzGE4Yr/KQNfIpA+f5vgIMGt3K5MORoxlhcCjLLZtA0g
Ept9hlT9M/3BKmJG+GCWz24BbyLfE0fnl+wFciOjYvj676yccvA3yy83z5CoJ1GG
xtd4CI9+JaIVcKL7HLYVXqCXi4FMCSiKJzuUvHHbW3E3misW4G+1yfVLTyC6Zc+v
ra0CAwEAAaOCAQ4wggEKMAsGA1UdDwQEAwIFoDAJBgNVHRMEAjAAMBEGCWCGSAGG
+EIBAQQEAwIGQDAzBglghkgBhvhCAQ0EJhYkT3BlblNTTCBHZW5lcmF0ZWQgU2Vy
dmVyIENlcnRpZmljYXRlMB0GA1UdDgQWBBTlJW0+rw3dP0zyRRk51RTbfpzArTB0
BgNVHSMEbTBrgBT0p8DMkUavZPOR8if4yLJviocyc6FIpEYwRDELMAkGA1UEBhMC
REUxDzANBgNVBAgMBkhlc3NlbjEUMBIGA1UECgwLcHJpdmFjeWlkZWExDjAMBgNV
BAMMBUNBMDAxggkA+8jrrIPNEgcwEwYDVR0lBAwwCgYIKwYBBQUHAwEwDQYJKoZI
hvcNAQELBQADggEBAE1W+IP7IMFZHxWKImMRgpC+QlEECJmCvs+OfWcLEGkNVzyB
kPs2tup977pIm+napFv6ZsaiH7UV0CiXPB0h5+sE7UzbswB4EU+68+OrQhGMfY8M
bZOBSQ15dz1MuWvOY6Y+TdMfuuTS6sVaBaPPdiSytBV2XDnFcLGk+lXNYKogdgBx
MdcdmTftzKsVnZORKcyLF+mOi8IXYEmNzIEjDd6lkpV9njhwpV07Z/1SoD4Z76p/
lNID+tz8SCnMG9iG3BJoWQLBa9j3XGrO6vZkko2k4Upd0IMA7izO4juDRsFolvHD
J6UBHpamXdfuAH0CufhbO2mOBO2ifJt5UmUXOz0=
-----END CERTIFICATE-----
