Certificate:
    Data:
        Version: 3 (0x2)
        Serial Number: 268435671 (0x100000d7)
    Signature Algorithm: sha256WithRSAEncryption
        Issuer: C=DE, ST=Hessen, O=privacyidea, CN=CA001
        Validity
            Not Before: Feb  9 08:14:09 2018 GMT
            Not After : Feb  9 08:14:09 2019 GMT
        Subject: CN=selfservice,CN=user,O=realm1/emailAddress=meine
        Subject Public Key Info:
            Public Key Algorithm: rsaEncryption
                Public-Key: (2048 bit)
                Modulus:
                    00:cf:3c:d4:33:0e:12:c4:e6:da:cd:b6:56:a1:1c:
                    26:bb:26:1c:8a:4a:73:a8:58:8a:b6:1e:b3:8b:99:
                    d2:1d:07:c2:92:89:79:c0:69:d8:c8:df:28:61:98:
                    1e:b3:fe:ae:2b:bd:78:a9:f7:6e:47:dc:a3:a0:16:
                    8c:85:02:c1:4e:92:fd:72:6e:f0:c8:03:29:9b:b8:
                    00:6e:c0:83:95:c8:34:20:36:9c:b3:e5:e4:e6:76:
                    73:a3:1a:ad:40:96:e0:53:54:00:ec:76:79:9a:c6:
                    0d:7e:b6:bd:29:ec:83:f3:cb:89:a4:cb:6c:00:ba:
                    0c:c5:78:0f:ff:69:b8:94:f4:04:70:43:3f:d8:9e:
                    d7:a7:fb:5d:ce:75:8e:da:e7:c4:07:b1:9d:de:6f:
                    88:4b:b6:4d:9a:cf:f9:bc:fa:9f:cd:32:6d:f6:3a:
                    0b:0d:23:42:78:ec:97:42:bf:0e:4d:60:56:e1:d3:
                    02:f2:19:cb:84:57:90:e5:70:a1:a2:83:35:86:e2:
                    da:86:9f:f9:8a:c4:79:b3:52:28:da:cb:bb:34:ca:
                    d3:da:91:4a:cf:8d:76:a2:b2:6b:9b:f9:96:fd:09:
                    2a:da:11:23:4d:f0:cb:d6:b2:b1:0e:12:6c:9a:19:
                    65:98:87:ca:e4:ee:24:ce:44:ac:90:8f:9d:1b:c5:
                    2a:9d
                Exponent: 65537 (0x10001)
        X509v3 extensions:
            X509v3 Key Usage: 
                Digital Signature, Key Encipherment
            X509v3 Basic Constraints: 
                CA:FALSE
            Netscape Cert Type: 
                SSL Server
            Netscape Comment: 
                OpenSSL Generated Server Certificate
            X509v3 Subject Key Identifier: 
                4D:07:90:AD:FF:1D:0D:E7:1A:DD:D6:2E:FA:BA:34:CB:AA:1F:24:C6
            X509v3 Authority Key Identifier: 
                keyid:F4:A7:C0:CC:91:46:AF:64:F3:91:F2:27:F8:C8:B2:6F:8A:87:32:73
                DirName:/C=DE/ST=Hessen/O=privacyidea/CN=CA001
                serial:FB:C8:EB:AC:83:CD:12:07

            X509v3 Extended Key Usage: 
                TLS Web Server Authentication
    Signature Algorithm: sha256WithRSAEncryption
         43:db:86:9f:56:6f:c6:0c:e8:90:61:89:76:f7:b5:e9:48:d4:
         03:99:2e:11:20:31:8e:79:51:e9:e0:80:a8:82:09:d5:3c:3d:
         8b:3d:fd:30:f8:9f:60:8a:bf:e6:1d:ee:73:3f:4c:9d:a6:1b:
         eb:76:ac:fd:ba:02:3a:4f:76:bc:9d:32:07:b6:06:ee:49:bc:
         75:a4:8b:21:cd:78:9d:d9:a3:23:7b:b1:05:6a:1d:88:89:77:
         d3:84:4f:a3:ab:44:4f:93:74:c9:31:3a:05:24:e5:34:29:bb:
         51:b2:7d:e6:e7:b1:86:bb:5e:8f:1b:a3:90:e1:06:46:24:0b:
         51:e4:52:0f:5a:e7:22:82:78:c6:1a:45:7a:d1:8b:c9:b0:29:
         ac:b9:86:a4:ae:d3:a7:a4:a1:28:00:ea:71:64:db:ad:0a:fc:
         ba:82:f1:f6:78:c1:50:b2:70:30:49:ca:1a:97:67:38:06:81:
         c9:2b:5a:99:08:77:40:08:f3:46:d3:5b:8a:44:ce:8d:a8:42:
         f9:78:2a:97:1f:3a:8d:1c:c0:6e:23:29:20:b2:ff:8c:2a:42:
         59:89:18:ad:38:46:8c:21:3f:e0:db:32:40:40:79:93:da:8d:
         c9:22:90:63:7f:a4:a2:4c:9a:1d:81:4f:eb:63:ea:2f:31:27:
         29:8e:2f:20
-----BEGIN CERTIFICATE-----
MIIEDzCCAvegAwIBAgIEEAAA1zANBgkqhkiG9w0BAQsFADBEMQswCQYDVQQGEwJE
RTEPMA0GA1UECAwGSGVzc2VuMRQwEgYDVQQKDAtwcml2YWN5aWRlYTEOMAwGA1UE
AwwFQ0EwMDEwHhcNMTgwMjA5MDgxNDA5WhcNMTkwMjA5MDgxNDA5WjA9MSUwIwYD
VQQDDBxzZWxmc2VydmljZSxDTj11c2VyLE89cmVhbG0xMRQwEgYJKoZIhvcNAQkB
FgVtZWluZTCCASIwDQYJKoZIhvcNAQEBBQADggEPADCCAQoCggEBAM881DMOEsTm
2s22VqEcJrsmHIpKc6hYirYes4uZ0h0HwpKJecBp2MjfKGGYHrP+riu9eKn3bkfc
o6AWjIUCwU6S/XJu8MgDKZu4AG7Ag5XINCA2nLPl5OZ2c6MarUCW4FNUAOx2eZrG
DX62vSnsg/PLiaTLbAC6DMV4D/9puJT0BHBDP9ie16f7Xc51jtrnxAexnd5viEu2
TZrP+bz6n80ybfY6Cw0jQnjsl0K/Dk1gVuHTAvIZy4RXkOVwoaKDNYbi2oaf+YrE
ebNSKNrLuzTK09qRSs+NdqKya5v5lv0JKtoRI03wy9aysQ4SbJoZZZiHyuTuJM5E
rJCPnRvFKp0CAwEAAaOCAQ4wggEKMAsGA1UdDwQEAwIFoDAJBgNVHRMEAjAAMBEG
CWCGSAGG+EIBAQQEAwIGQDAzBglghkgBhvhCAQ0EJhYkT3BlblNTTCBHZW5lcmF0
ZWQgU2VydmVyIENlcnRpZmljYXRlMB0GA1UdDgQWBBRNB5Ct/x0N5xrd1i76ujTL
qh8kxjB0BgNVHSMEbTBrgBT0p8DMkUavZPOR8if4yLJviocyc6FIpEYwRDELMAkG
A1UEBhMCREUxDzANBgNVBAgMBkhlc3NlbjEUMBIGA1UECgwLcHJpdmFjeWlkZWEx
DjAMBgNVBAMMBUNBMDAxggkA+8jrrIPNEgcwEwYDVR0lBAwwCgYIKwYBBQUHAwEw
DQYJKoZIhvcNAQELBQADggEBAEPbhp9Wb8YM6JBhiXb3telI1AOZLhEgMY55Ueng
gKiCCdU8PYs9/TD4n2CKv+Yd7nM/TJ2mG+t2rP26AjpPdrydMge2Bu5JvHWkiyHN
eJ3ZoyN7sQVqHYiJd9OET6OrRE+TdMkxOgUk5TQpu1GyfebnsYa7Xo8bo5DhBkYk
C1HkUg9a5yKCeMYaRXrRi8mwKay5hqSu06ekoSgA6nFk260K/LqC8fZ4wVCycDBJ
yhqXZzgGgckrWpkId0AI80bTW4pEzo2oQvl4KpcfOo0cwG4jKSCy/4wqQlmJGK04
RowhP+DbMkBAeZPajckikGN/pKJMmh2BT+tj6i8xJymOLyA=
-----END CERTIFICATE-----
