Certificate:
    Data:
        Version: 3 (0x2)
        Serial Number: 268435665 (0x100000d1)
    Signature Algorithm: sha256WithRSAEncryption
        Issuer: C=DE, ST=Hessen, O=privacyidea, CN=CA001
        Validity
            Not Before: Feb  9 14:57:14 2018 GMT
            Not After : Feb  9 14:57:14 2019 GMT
        Subject: C=DE, ST=Hessen, O=privacyidea, CN=requester.localdomain
        Subject Public Key Info:
            Public Key Algorithm: rsaEncryption
                Public-Key: (2048 bit)
                Modulus:
                    00:cd:be:14:4f:fa:ce:01:3f:42:22:1b:1d:9c:af:
                    dd:92:d2:7f:db:6c:b7:3e:39:43:43:6b:13:03:f1:
                    05:f4:07:74:bc:76:69:28:0b:af:19:8e:d7:fc:e3:
                    cd:c6:58:f2:ca:7f:08:6d:53:fc:07:02:44:24:c6:
                    b4:34:4c:8c:04:fe:33:0e:40:e2:20:ba:02:73:5a:
                    f7:f5:4f:63:6e:cc:c6:b6:df:54:1d:37:39:7d:51:
                    36:26:5f:bd:dc:3f:a8:8b:6b:a2:ae:b6:9d:d6:21:
                    e7:df:41:b8:7a:28:2a:68:48:ca:a8:2d:ed:e1:e9:
                    46:5e:5a:72:6d:b4:84:38:87:91:fd:94:11:0b:28:
                    84:c6:c2:2f:2a:fb:01:f9:36:7a:09:75:d1:33:88:
                    3c:73:41:5b:c8:bf:94:89:70:a1:f0:c0:b9:2e:50:
                    53:1e:b1:17:64:69:f4:2d:81:e0:a9:0d:0e:32:e9:
                    ba:55:8a:85:f1:1b:6f:49:79:b4:7f:88:c3:0d:3e:
                    54:88:9b:3d:1f:38:8c:04:f3:ee:6a:63:2b:f5:c6:
                    db:b4:83:aa:c4:78:41:3a:7d:4b:e1:c8:3e:71:ca:
                    1b:61:59:ea:c6:c4:ca:32:5e:c9:e9:bf:12:29:e6:
                    c6:c3:63:fe:a0:55:da:7a:f1:60:98:4d:26:ed:fa:
                    70:2d
                Exponent: 65537 (0x10001)
        X509v3 extensions:
            X509v3 Key Usage: 
                Digital Signature, Key Encipherment
            X509v3 Basic Constraints: 
                CA:FALSE
            Netscape Cert Type: 
                SSL Server
            Netscape Comment: 
                OpenSSL Generated Server Certificate
            X509v3 Subject Key Identifier: 
                53:3F:ED:5D:09:07:B3:65:7B:AB:45:C9:24:5B:09:77:80:0A:96:ED
            X509v3 Authority Key Identifier: 
                keyid:F4:A7:C0:CC:91:46:AF:64:F3:91:F2:27:F8:C8:B2:6F:8A:87:32:73
                DirName:/C=DE/ST=Hessen/O=privacyidea/CN=CA001
                serial:FB:C8:EB:AC:83:CD:12:07

            X509v3 Extended Key Usage: 
                TLS Web Server Authentication
    Signature Algorithm: sha256WithRSAEncryption
         6b:99:dc:b9:5d:ae:b0:ff:b2:dc:f3:41:52:1d:15:b1:a6:1c:
         31:e6:c8:67:5b:a0:cb:7d:15:d4:02:fc:77:a5:e5:bf:80:59:
         39:44:45:ad:df:7c:36:eb:9f:20:4d:b4:2e:34:12:42:bf:5b:
         e1:0e:5f:74:03:a0:05:6a:04:dd:da:97:93:3c:d8:87:f9:df:
         ae:ba:79:4c:d6:c9:c0:b1:a4:4f:9c:e7:2c:d7:2d:6c:64:8b:
         db:84:3d:4b:09:54:24:af:65:d7:25:7e:06:7e:0f:9f:a1:d0:
         f2:09:61:2f:8d:01:5b:56:eb:ae:59:1a:72:2b:78:5f:9c:12:
         12:2e:ab:96:74:bd:e4:24:ed:40:5c:58:e3:2e:ae:3f:00:9b:
         d7:5d:88:77:87:36:96:10:04:bf:c8:66:56:0c:a3:ba:61:88:
         8b:1a:ca:d6:8c:c1:80:9c:dd:3f:71:f3:92:34:88:49:8f:b2:
         80:fb:b9:bd:14:76:a4:48:39:15:9e:5c:b3:8f:cc:68:35:95:
         ed:1d:15:38:ab:ef:af:92:e7:37:a8:b6:48:a3:a2:7c:33:66:
         8b:4d:de:f8:82:77:34:98:78:25:d4:1b:eb:2f:30:18:b4:b5:
         42:f6:03:5e:3c:20:5f:eb:2d:42:65:7a:3f:33:9c:34:d4:f5:
         0e:f2:20:c5
-----BEGIN CERTIFICATE-----
MIIEJjCCAw6gAwIBAgIEEAAA0TANBgkqhkiG9w0BAQsFADBEMQswCQYDVQQGEwJE
RTEPMA0GA1UECAwGSGVzc2VuMRQwEgYDVQQKDAtwcml2YWN5aWRlYTEOMAwGA1UE
AwwFQ0EwMDEwHhcNMTgwMjA5MTQ1NzE0WhcNMTkwMjA5MTQ1NzE0WjBUMQswCQYD
VQQGEwJERTEPMA0GA1UECAwGSGVzc2VuMRQwEgYDVQQKDAtwcml2YWN5aWRlYTEe
MBwGA1UEAwwVcmVxdWVzdGVyLmxvY2FsZG9tYWluMIIBIjANBgkqhkiG9w0BAQEF
AAOCAQ8AMIIBCgKCAQEAzb4UT/rOAT9CIhsdnK/dktJ/22y3PjlDQ2sTA/EF9Ad0
vHZpKAuvGY7X/OPNxljyyn8IbVP8BwJEJMa0NEyMBP4zDkDiILoCc1r39U9jbszG
tt9UHTc5fVE2Jl+93D+oi2uirrad1iHn30G4eigqaEjKqC3t4elGXlpybbSEOIeR
/ZQRCyiExsIvKvsB+TZ6CXXRM4g8c0FbyL+UiXCh8MC5LlBTHrEXZGn0LYHgqQ0O
Mum6VYqF8RtvSXm0f4jDDT5UiJs9HziMBPPuamMr9cbbtIOqxHhBOn1L4cg+ccob
YVnqxsTKMl7J6b8SKebGw2P+oFXaevFgmE0m7fpwLQIDAQABo4IBDjCCAQowCwYD
VR0PBAQDAgWgMAkGA1UdEwQCMAAwEQYJYIZIAYb4QgEBBAQDAgZAMDMGCWCGSAGG
+EIBDQQmFiRPcGVuU1NMIEdlbmVyYXRlZCBTZXJ2ZXIgQ2VydGlmaWNhdGUwHQYD
VR0OBBYEFFM/7V0JB7Nle6tFySRbCXeACpbtMHQGA1UdIwRtMGuAFPSnwMyRRq9k
85HyJ/jIsm+KhzJzoUikRjBEMQswCQYDVQQGEwJERTEPMA0GA1UECAwGSGVzc2Vu
MRQwEgYDVQQKDAtwcml2YWN5aWRlYTEOMAwGA1UEAwwFQ0EwMDGCCQD7yOusg80S
BzATBgNVHSUEDDAKBggrBgEFBQcDATANBgkqhkiG9w0BAQsFAAOCAQEAa5ncuV2u
sP+y3PNBUh0VsaYcMebIZ1ugy30V1AL8d6Xlv4BZOURFrd98NuufIE20LjQSQr9b
4Q5fdAOgBWoE3dqXkzzYh/nfrrp5TNbJwLGkT5znLNctbGSL24Q9SwlUJK9l1yV+
Bn4Pn6HQ8glhL40BW1brrlkacit4X5wSEi6rlnS95CTtQFxY4y6uPwCb112Id4c2
lhAEv8hmVgyjumGIixrK1ozBgJzdP3HzkjSISY+ygPu5vRR2pEg5FZ5cs4/MaDWV
7R0VOKvvr5LnN6i2SKOifDNmi03e+IJ3NJh4JdQb6y8wGLS1QvYDXjwgX+stQmV6
PzOcNNT1DvIgxQ==
-----END CERTIFICATE-----
