Certificate:
    Data:
        Version: 3 (0x2)
        Serial Number: 268435669 (0x100000d5)
    Signature Algorithm: sha256WithRSAEncryption
        Issuer: C=DE, ST=Hessen, O=privacyidea, CN=CA001
        Validity
            Not Before: Feb  9 15:01:56 2018 GMT
            Not After : Feb  9 15:01:56 2019 GMT
        Subject: C=DE, ST=Hessen, O=privacyidea, CN=requester.localdomain
        Subject Public Key Info:
            Public Key Algorithm: rsaEncryption
                Public-Key: (2048 bit)
                Modulus:
                    00:cd:be:14:4f:fa:ce:01:3f:42:22:1b:1d:9c:af:
                    dd:92:d2:7f:db:6c:b7:3e:39:43:43:6b:13:03:f1:
                    05:f4:07:74:bc:76:69:28:0b:af:19:8e:d7:fc:e3:
                    cd:c6:58:f2:ca:7f:08:6d:53:fc:07:02:44:24:c6:
                    b4:34:4c:8c:04:fe:33:0e:40:e2:20:ba:02:73:5a:
                    f7:f5:4f:63:6e:cc:c6:b6:df:54:1d:37:39:7d:51:
                    36:26:5f:bd:dc:3f:a8:8b:6b:a2:ae:b6:9d:d6:21:
                    e7:df:41:b8:7a:28:2a:68:48:ca:a8:2d:ed:e1:e9:
                    46:5e:5a:72:6d:b4:84:38:87:91:fd:94:11:0b:28:
                    84:c6:c2:2f:2a:fb:01:f9:36:7a:09:75:d1:33:88:
                    3c:73:41:5b:c8:bf:94:89:70:a1:f0:c0:b9:2e:50:
                    53:1e:b1:17:64:69:f4:2d:81:e0:a9:0d:0e:32:e9:
                    ba:55:8a:85:f1:1b:6f:49:79:b4:7f:88:c3:0d:3e:
                    54:88:9b:3d:1f:38:8c:04:f3:ee:6a:63:2b:f5:c6:
                    db:b4:83:aa:c4:78:41:3a:7d:4b:e1:c8:3e:71:ca:
                    1b:61:59:ea:c6:c4:ca:32:5e:c9:e9:bf:12:29:e6:
                    c6:c3:63:fe:a0:55:da:7a:f1:60:98:4d:26:ed:fa:
                    70:2d
                Exponent: 65537 (0x10001)
        X509v3 extensions:
            X509v3 Key Usage: 
                Digital Signature, Key Encipherment
            X509v3 Basic Constraints: 
                CA:FALSE
            Netscape Cert Type: 
                SSL Server
            Netscape Comment: 
                OpenSSL Generated Server Certificate
            X509v3 Subject Key Identifier: 
                53:3F:ED:5D:09:07:B3:65:7B:AB:45:C9:24:5B:09:77:80:0A:96:ED
            X509v3 Authority Key Identifier: 
                keyid:F4:A7:C0:CC:91:46:AF:64:F3:91:F2:27:F8:C8:B2:6F:8A:87:32:73
                DirName:/C=DE/ST=Hessen/O=privacyidea/CN=CA001
                serial:FB:C8:EB:AC:83:CD:12:07

            X509v3 Extended Key Usage: 
                TLS Web Server Authentication
    Signature Algorithm: sha256WithRSAEncryption
         57:b6:c8:7e:d9:5e:3b:34:5d:8a:13:65:4e:f3:95:a3:e4:52:
         c5:d6:9d:11:1b:7c:2a:f0:b2:9b:45:b6:40:64:3a:7b:2e:97:
         50:09:e7:8f:5d:6f:c2:ee:79:48:11:b8:3e:e5:7c:ff:2a:94:
         ba:c7:16:3c:95:1c:82:78:ed:1b:64:20:c0:8a:04:6d:7c:f4:
         60:70:22:31:b6:07:8c:19:92:2a:99:94:f9:26:1c:b4:10:58:
         05:51:44:d4:98:a6:f5:d7:8e:21:04:f4:a6:18:7b:62:0e:0a:
         c8:38:9c:85:3f:e2:54:a5:4b:8f:62:41:39:f3:76:c2:56:33:
         9e:d5:b7:1d:e7:dd:99:be:97:f9:9b:e4:77:3c:d4:87:d5:e6:
         35:be:ff:4e:54:df:13:b1:3d:c1:dc:6d:bc:6e:ef:08:f8:00:
         8c:41:3a:8e:cf:6a:b1:2a:ea:b4:f6:6c:3a:c7:0c:33:1b:a5:
         15:b0:d7:d2:e2:c2:b7:ba:f7:f3:02:1c:52:34:fb:e8:bb:5d:
         4e:77:99:67:2f:f2:5c:0b:fd:ce:17:66:32:fd:1c:b7:fd:02:
         a9:a3:5f:3a:1d:29:0a:03:1e:24:a8:37:02:e8:ee:d8:0b:0f:
         8c:46:e1:09:de:19:23:1e:49:84:67:1a:1f:d7:0d:f0:cc:e7:
         97:de:8a:0b
-----BEGIN CERTIFICATE-----
MIIEJjCCAw6gAwIBAgIEEAAA1TANBgkqhkiG9w0BAQsFADBEMQswCQYDVQQGEwJE
RTEPMA0GA1UECAwGSGVzc2VuMRQwEgYDVQQKDAtwcml2YWN5aWRlYTEOMAwGA1UE
AwwFQ0EwMDEwHhcNMTgwMjA5MTUwMTU2WhcNMTkwMjA5MTUwMTU2WjBUMQswCQYD
VQQGEwJERTEPMA0GA1UECAwGSGVzc2VuMRQwEgYDVQQKDAtwcml2YWN5aWRlYTEe
MBwGA1UEAwwVcmVxdWVzdGVyLmxvY2FsZG9tYWluMIIBIjANBgkqhkiG9w0BAQEF
AAOCAQ8AMIIBCgKCAQEAzb4UT/rOAT9CIhsdnK/dktJ/22y3PjlDQ2sTA/EF9Ad0
vHZpKAuvGY7X/OPNxljyyn8IbVP8BwJEJMa0NEyMBP4zDkDiILoCc1r39U9jbszG
tt9UHTc5fVE2Jl+93D+oi2uirrad1iHn30G4eigqaEjKqC3t4elGXlpybbSEOIeR
/ZQRCyiExsIvKvsB+TZ6CXXRM4g8c0FbyL+UiXCh8MC5LlBTHrEXZGn0LYHgqQ0O
Mum6VYqF8RtvSXm0f4jDDT5UiJs9HziMBPPuamMr9cbbtIOqxHhBOn1L4cg+ccob
YVnqxsTKMl7J6b8SKebGw2P+oFXaevFgmE0m7fpwLQIDAQABo4IBDjCCAQowCwYD
VR0PBAQDAgWgMAkGA1UdEwQCMAAwEQYJYIZIAYb4QgEBBAQDAgZAMDMGCWCGSAGG
+EIBDQQmFiRPcGVuU1NMIEdlbmVyYXRlZCBTZXJ2ZXIgQ2VydGlmaWNhdGUwHQYD
VR0OBBYEFFM/7V0JB7Nle6tFySRbCXeACpbtMHQGA1UdIwRtMGuAFPSnwMyRRq9k
85HyJ/jIsm+KhzJzoUikRjBEMQswCQYDVQQGEwJERTEPMA0GA1UECAwGSGVzc2Vu
MRQwEgYDVQQKDAtwcml2YWN5aWRlYTEOMAwGA1UEAwwFQ0EwMDGCCQD7yOusg80S
BzATBgNVHSUEDDAKBggrBgEFBQcDATANBgkqhkiG9w0BAQsFAAOCAQEAV7bIftle
OzRdihNlTvOVo+RSxdadERt8KvCym0W2QGQ6ey6XUAnnj11vwu55SBG4PuV8/yqU
uscWPJUcgnjtG2QgwIoEbXz0YHAiMbYHjBmSKpmU+SYctBBYBVFE1Jim9deOIQT0
phh7Yg4KyDichT/iVKVLj2JBOfN2wlYzntW3Hefdmb6X+ZvkdzzUh9XmNb7/TlTf
E7E9wdxtvG7vCPgAjEE6js9qsSrqtPZsOscMMxulFbDX0uLCt7r38wIcUjT76Ltd
TneZZy/yXAv9zhdmMv0ct/0CqaNfOh0pCgMeJKg3Auju2AsPjEbhCd4ZIx5JhGca
H9cN8Mznl96KCw==
-----END CERTIFICATE-----
