Certificate:
    Data:
        Version: 3 (0x2)
        Serial Number: 268435670 (0x100000d6)
    Signature Algorithm: sha256WithRSAEncryption
        Issuer: C=DE, ST=Hessen, O=privacyidea, CN=CA001
        Validity
            Not Before: Feb  9 15:01:57 2018 GMT
            Not After : Feb  9 15:01:57 2019 GMT
        Subject: OU=realm1, CN=cornelius/emailAddress=user@localhost.localdomain
        Subject Public Key Info:
            Public Key Algorithm: rsaEncryption
                Public-Key: (2048 bit)
                Modulus:
                    00:df:7a:a9:9e:6e:eb:11:cb:fc:80:e5:da:f5:c3:
                    ac:d3:35:55:2e:d8:ad:3a:4a:78:6c:2e:e8:1b:93:
                    e1:6a:15:e0:63:bb:a0:37:95:d9:ab:b8:c0:af:16:
                    c0:48:d1:56:f3:f2:3b:fb:fa:ce:38:12:5a:38:f9:
                    4c:52:48:f4:5e:bf:61:d0:9a:a1:0b:db:b9:66:1d:
                    2b:8f:0a:ad:f7:d6:31:13:b2:9f:d1:fb:34:2a:7d:
                    fa:7b:95:35:e7:24:43:02:d5:d0:87:b7:b6:d4:5c:
                    38:e8:7a:de:02:60:d6:5f:3e:a3:f0:7f:19:db:8c:
                    13:d3:6f:f9:b7:26:7a:37:e5:d0:ad:2a:9d:0b:f1:
                    fd:b7:e9:1a:28:ab:91:3b:da:28:30:14:96:6f:ad:
                    42:89:6e:3c:cd:ce:9b:03:ce:ee:c1:d4:95:cb:4e:
                    07:19:b5:5d:ee:c3:80:5c:75:3f:d0:66:db:b1:a3:
                    ce:bd:4d:e2:9b:23:79:c8:77:ea:a3:d2:4a:65:c3:
                    fc:9d:47:21:7b:5f:33:dd:0a:76:b2:1a:a5:56:ed:
                    65:f7:26:d4:4a:ca:51:6b:c4:66:26:1d:4f:4c:85:
                    a0:5a:04:ce:9c:a3:70:d1:cc:6a:44:94:38:de:33:
                    5e:37:03:2c:a5:10:37:42:bf:bf:2b:fd:0b:50:4a:
                    55:17
                Exponent: 65537 (0x10001)
        X509v3 extensions:
            X509v3 Key Usage: 
                Digital Signature, Key Encipherment
            X509v3 Basic Constraints: 
                CA:FALSE
            Netscape Cert Type: 
                SSL Server
            Netscape Comment: 
                OpenSSL Generated Server Certificate
            X509v3 Subject Key Identifier: 
                55:F4:9D:10:B6:94:3B:56:3F:71:97:80:9F:B9:23:E1:83:B0:38:E7
            X509v3 Authority Key Identifier: 
                keyid:F4:A7:C0:CC:91:46:AF:64:F3:91:F2:27:F8:C8:B2:6F:8A:87:32:73
                DirName:/C=DE/ST=Hessen/O=privacyidea/CN=CA001
                serial:FB:C8:EB:AC:83:CD:12:07

            X509v3 Extended Key Usage: 
                TLS Web Server Authentication
    Signature Algorithm: sha256WithRSAEncryption
         c0:82:71:03:13:8b:bf:93:f8:99:25:fd:46:ca:56:0d:fe:20:
         62:78:62:99:d6:26:98:ac:dc:b5:1b:52:ca:21:f6:9c:41:37:
         ce:6e:c4:9b:fb:db:bc:41:91:32:ad:9e:5c:83:ee:02:31:64:
         82:45:d7:a6:18:41:48:c3:59:a9:ef:50:93:8b:73:07:0f:a1:
         e1:e3:ef:13:1e:e9:fd:a9:4b:4d:74:49:43:38:5e:10:a4:7d:
         63:c6:e4:84:b5:8d:bc:24:c4:f2:d5:82:9f:e3:8c:90:8d:23:
         81:a1:86:8c:7a:d1:33:7f:06:a7:75:6a:29:20:3a:4e:94:7e:
         32:dc:9d:aa:3a:10:26:ea:7c:a0:3c:9b:0e:e9:ca:ef:ec:06:
         c7:aa:02:02:f0:32:03:7c:96:a1:41:e3:9b:1c:46:78:69:46:
         7d:c7:99:62:f3:45:55:d3:c7:7c:54:ad:ae:cc:12:36:20:c9:
         ea:56:fe:39:bd:e4:b4:f4:3d:c3:70:fe:3a:10:bf:84:8e:b0:
         49:03:3b:0a:08:54:74:ee:83:6b:3a:09:c7:9a:0c:6b:e6:5e:
         19:89:27:36:2b:05:4f:5f:64:56:9a:58:00:88:31:ec:e4:25:
         6b:33:e6:59:70:9a:6e:21:93:59:34:24:4d:d8:39:98:1d:98:
         b4:ce:b0:45
-----BEGIN CERTIFICATE-----
MIIEIjCCAwqgAwIBAgIEEAAA1jANBgkqhkiG9w0BAQsFADBEMQswCQYDVQQGEwJE
RTEPMA0GA1UECAwGSGVzc2VuMRQwEgYDVQQKDAtwcml2YWN5aWRlYTEOMAwGA1UE
AwwFQ0EwMDEwHhcNMTgwMjA5MTUwMTU3WhcNMTkwMjA5MTUwMTU3WjBQMQ8wDQYD
VQQLDAZyZWFsbTExEjAQBgNVBAMMCWNvcm5lbGl1czEpMCcGCSqGSIb3DQEJARYa
dXNlckBsb2NhbGhvc3QubG9jYWxkb21haW4wggEiMA0GCSqGSIb3DQEBAQUAA4IB
DwAwggEKAoIBAQDfeqmebusRy/yA5dr1w6zTNVUu2K06SnhsLugbk+FqFeBju6A3
ldmruMCvFsBI0Vbz8jv7+s44Elo4+UxSSPRev2HQmqEL27lmHSuPCq331jETsp/R
+zQqffp7lTXnJEMC1dCHt7bUXDjoet4CYNZfPqPwfxnbjBPTb/m3Jno35dCtKp0L
8f236Rooq5E72igwFJZvrUKJbjzNzpsDzu7B1JXLTgcZtV3uw4BcdT/QZtuxo869
TeKbI3nId+qj0kplw/ydRyF7XzPdCnayGqVW7WX3JtRKylFrxGYmHU9MhaBaBM6c
o3DRzGpElDjeM143AyylEDdCv78r/QtQSlUXAgMBAAGjggEOMIIBCjALBgNVHQ8E
BAMCBaAwCQYDVR0TBAIwADARBglghkgBhvhCAQEEBAMCBkAwMwYJYIZIAYb4QgEN
BCYWJE9wZW5TU0wgR2VuZXJhdGVkIFNlcnZlciBDZXJ0aWZpY2F0ZTAdBgNVHQ4E
FgQUVfSdELaUO1Y/cZeAn7kj4YOwOOcwdAYDVR0jBG0wa4AU9KfAzJFGr2TzkfIn
+Miyb4qHMnOhSKRGMEQxCzAJBgNVBAYTAkRFMQ8wDQYDVQQIDAZIZXNzZW4xFDAS
BgNVBAoMC3ByaXZhY3lpZGVhMQ4wDAYDVQQDDAVDQTAwMYIJAPvI66yDzRIHMBMG
A1UdJQQMMAoGCCsGAQUFBwMBMA0GCSqGSIb3DQEBCwUAA4IBAQDAgnEDE4u/k/iZ
Jf1GylYN/iBieGKZ1iaYrNy1G1LKIfacQTfObsSb+9u8QZEyrZ5cg+4CMWSCRdem
GEFIw1mp71CTi3MHD6Hh4+8THun9qUtNdElDOF4QpH1jxuSEtY28JMTy1YKf44yQ
jSOBoYaMetEzfwandWopIDpOlH4y3J2qOhAm6nygPJsO6crv7AbHqgIC8DIDfJah
QeObHEZ4aUZ9x5li80VV08d8VK2uzBI2IMnqVv45veS09D3DcP46EL+EjrBJAzsK
CFR07oNrOgnHmgxr5l4ZiSc2KwVPX2RWmlgAiDHs5CVrM+ZZcJpuIZNZNCRN2DmY
HZi0zrBF
-----END CERTIFICATE-----
