Certificate:
    Data:
        Version: 3 (0x2)
        Serial Number: 268435665 (0x100000d1)
    Signature Algorithm: sha256WithRSAEncryption
        Issuer: C=DE, ST=Hessen, O=privacyidea, CN=CA001
        Validity
            Not Before: Jan 24 16:29:04 2018 GMT
            Not After : Jan 24 16:29:04 2019 GMT
        Subject: C=DE, ST=Hessen, O=privacyidea, CN=requester.localdomain
        Subject Public Key Info:
            Public Key Algorithm: rsaEncryption
                Public-Key: (2048 bit)
                Modulus:
                    00:cd:be:14:4f:fa:ce:01:3f:42:22:1b:1d:9c:af:
                    dd:92:d2:7f:db:6c:b7:3e:39:43:43:6b:13:03:f1:
                    05:f4:07:74:bc:76:69:28:0b:af:19:8e:d7:fc:e3:
                    cd:c6:58:f2:ca:7f:08:6d:53:fc:07:02:44:24:c6:
                    b4:34:4c:8c:04:fe:33:0e:40:e2:20:ba:02:73:5a:
                    f7:f5:4f:63:6e:cc:c6:b6:df:54:1d:37:39:7d:51:
                    36:26:5f:bd:dc:3f:a8:8b:6b:a2:ae:b6:9d:d6:21:
                    e7:df:41:b8:7a:28:2a:68:48:ca:a8:2d:ed:e1:e9:
                    46:5e:5a:72:6d:b4:84:38:87:91:fd:94:11:0b:28:
                    84:c6:c2:2f:2a:fb:01:f9:36:7a:09:75:d1:33:88:
                    3c:73:41:5b:c8:bf:94:89:70:a1:f0:c0:b9:2e:50:
                    53:1e:b1:17:64:69:f4:2d:81:e0:a9:0d:0e:32:e9:
                    ba:55:8a:85:f1:1b:6f:49:79:b4:7f:88:c3:0d:3e:
                    54:88:9b:3d:1f:38:8c:04:f3:ee:6a:63:2b:f5:c6:
                    db:b4:83:aa:c4:78:41:3a:7d:4b:e1:c8:3e:71:ca:
                    1b:61:59:ea:c6:c4:ca:32:5e:c9:e9:bf:12:29:e6:
                    c6:c3:63:fe:a0:55:da:7a:f1:60:98:4d:26:ed:fa:
                    70:2d
                Exponent: 65537 (0x10001)
        X509v3 extensions:
            X509v3 Key Usage: 
                Digital Signature, Key Encipherment
            X509v3 Basic Constraints: 
                CA:FALSE
            Netscape Cert Type: 
                SSL Server
            Netscape Comment: 
                OpenSSL Generated Server Certificate
            X509v3 Subject Key Identifier: 
                53:3F:ED:5D:09:07:B3:65:7B:AB:45:C9:24:5B:09:77:80:0A:96:ED
            X509v3 Authority Key Identifier: 
                keyid:F4:A7:C0:CC:91:46:AF:64:F3:91:F2:27:F8:C8:B2:6F:8A:87:32:73
                DirName:/C=DE/ST=Hessen/O=privacyidea/CN=CA001
                serial:FB:C8:EB:AC:83:CD:12:07

            X509v3 Extended Key Usage: 
                TLS Web Server Authentication
    Signature Algorithm: sha256WithRSAEncryption
         06:73:c2:93:3e:bd:b0:bd:b6:32:3d:a6:99:6a:24:fd:4a:3a:
         ab:17:b2:b8:57:73:16:95:5a:9f:a2:20:96:73:ef:2c:05:cb:
         ae:04:df:62:c7:ae:e0:12:77:53:db:40:28:26:b3:c0:fc:bd:
         8f:64:a6:dd:5f:fd:73:55:32:ea:54:b9:1d:37:3d:ed:6c:5d:
         4a:1c:73:f7:81:ca:99:7b:79:b7:d0:e6:49:c1:3c:07:ff:1e:
         bf:be:d6:ea:a9:46:99:e8:dc:1d:6f:86:3c:2f:05:c4:51:3e:
         72:39:ec:bf:d9:64:39:90:0f:84:60:c3:45:7e:91:ca:e6:8d:
         f9:10:3f:48:29:da:4b:bc:7c:6d:ce:ed:d6:c5:f3:fc:1d:53:
         c1:20:58:d6:94:82:90:ed:2c:94:e9:6e:50:f4:15:30:f7:b2:
         51:e4:da:98:7b:42:39:8c:e3:88:39:fb:72:0c:8d:16:4f:02:
         f1:57:b9:1f:dc:15:94:29:f2:af:3e:14:44:24:0f:2e:88:1f:
         16:2a:b8:ef:69:0c:da:41:63:d5:2b:5e:f2:12:1c:0b:24:dd:
         37:58:53:14:fd:27:20:77:90:57:c5:82:83:c6:96:46:8f:ce:
         75:1e:7e:ca:d3:4d:9d:92:a8:7b:e9:6f:0e:be:70:bb:35:1d:
         73:44:37:d1
-----BEGIN CERTIFICATE-----
MIIEJjCCAw6gAwIBAgIEEAAA0TANBgkqhkiG9w0BAQsFADBEMQswCQYDVQQGEwJE
RTEPMA0GA1UECAwGSGVzc2VuMRQwEgYDVQQKDAtwcml2YWN5aWRlYTEOMAwGA1UE
AwwFQ0EwMDEwHhcNMTgwMTI0MTYyOTA0WhcNMTkwMTI0MTYyOTA0WjBUMQswCQYD
VQQGEwJERTEPMA0GA1UECAwGSGVzc2VuMRQwEgYDVQQKDAtwcml2YWN5aWRlYTEe
MBwGA1UEAwwVcmVxdWVzdGVyLmxvY2FsZG9tYWluMIIBIjANBgkqhkiG9w0BAQEF
AAOCAQ8AMIIBCgKCAQEAzb4UT/rOAT9CIhsdnK/dktJ/22y3PjlDQ2sTA/EF9Ad0
vHZpKAuvGY7X/OPNxljyyn8IbVP8BwJEJMa0NEyMBP4zDkDiILoCc1r39U9jbszG
tt9UHTc5fVE2Jl+93D+oi2uirrad1iHn30G4eigqaEjKqC3t4elGXlpybbSEOIeR
/ZQRCyiExsIvKvsB+TZ6CXXRM4g8c0FbyL+UiXCh8MC5LlBTHrEXZGn0LYHgqQ0O
Mum6VYqF8RtvSXm0f4jDDT5UiJs9HziMBPPuamMr9cbbtIOqxHhBOn1L4cg+ccob
YVnqxsTKMl7J6b8SKebGw2P+oFXaevFgmE0m7fpwLQIDAQABo4IBDjCCAQowCwYD
VR0PBAQDAgWgMAkGA1UdEwQCMAAwEQYJYIZIAYb4QgEBBAQDAgZAMDMGCWCGSAGG
+EIBDQQmFiRPcGVuU1NMIEdlbmVyYXRlZCBTZXJ2ZXIgQ2VydGlmaWNhdGUwHQYD
VR0OBBYEFFM/7V0JB7Nle6tFySRbCXeACpbtMHQGA1UdIwRtMGuAFPSnwMyRRq9k
85HyJ/jIsm+KhzJzoUikRjBEMQswCQYDVQQGEwJERTEPMA0GA1UECAwGSGVzc2Vu
MRQwEgYDVQQKDAtwcml2YWN5aWRlYTEOMAwGA1UEAwwFQ0EwMDGCCQD7yOusg80S
BzATBgNVHSUEDDAKBggrBgEFBQcDATANBgkqhkiG9w0BAQsFAAOCAQEABnPCkz69
sL22Mj2mmWok/Uo6qxeyuFdzFpVan6IglnPvLAXLrgTfYseu4BJ3U9tAKCazwPy9
j2Sm3V/9c1Uy6lS5HTc97WxdShxz94HKmXt5t9DmScE8B/8ev77W6qlGmejcHW+G
PC8FxFE+cjnsv9lkOZAPhGDDRX6RyuaN+RA/SCnaS7x8bc7t1sXz/B1TwSBY1pSC
kO0slOluUPQVMPeyUeTamHtCOYzjiDn7cgyNFk8C8Ve5H9wVlCnyrz4URCQPLogf
Fiq472kM2kFj1Ste8hIcCyTdN1hTFP0nIHeQV8WCg8aWRo/OdR5+ytNNnZKoe+lv
Dr5wuzUdc0Q30Q==
-----END CERTIFICATE-----
