Certificate:
    Data:
        Version: 3 (0x2)
        Serial Number: 268435668 (0x100000d4)
    Signature Algorithm: sha256WithRSAEncryption
        Issuer: C=DE, ST=Hessen, O=privacyidea, CN=CA001
        Validity
            Not Before: Jan 24 16:29:05 2018 GMT
            Not After : Feb 13 16:29:05 2020 GMT
        Subject: CN=Steve Test/emailAddress=steve@openssl.org
        Subject Public Key Info:
            Public Key Algorithm: rsaEncryption
                Public-Key: (2048 bit)
                Modulus:
                    00:d2:81:89:20:51:48:0f:73:f4:11:32:24:d5:1f:
                    1c:fd:5c:f5:b6:e6:c5:f0:52:81:dc:d2:af:66:4a:
                    7c:93:31:61:5c:af:d1:6d:06:70:03:60:7c:72:0c:
                    88:dd:49:cd:9e:02:6c:d2:5a:d7:53:0f:f3:da:be:
                    69:64:b5:0f:0c:00:e3:b3:50:47:a3:b3:9b:ba:13:
                    50:d6:58:5a:4b:ab:39:e0:11:ca:0a:27:67:03:78:
                    22:66:6d:92:1e:1b:5c:49:ae:e6:6b:d1:8e:3b:9d:
                    06:d3:c6:ac:4d:53:43:10:ab:e8:96:c1:87:82:97:
                    99:8f:20:d3:99:12:37:31:84:e1:8a:ff:29:03:5f:
                    22:90:3e:7f:9b:e0:20:c1:ad:dc:ae:4c:39:1a:31:
                    96:17:02:8c:b2:d9:b4:0d:20:12:9b:7d:86:54:fd:
                    33:fd:c1:2a:62:46:f8:60:96:cf:6e:01:6f:22:df:
                    13:47:e7:97:ec:05:72:23:a3:62:f8:fa:ef:ac:9c:
                    72:f0:37:cb:2f:37:cf:90:a8:27:51:86:c6:d7:78:
                    08:8f:7e:25:a2:15:70:a2:fb:1c:b6:15:5e:a0:97:
                    8b:81:4c:09:28:8a:27:3b:94:bc:71:db:5b:71:37:
                    9a:2b:16:e0:6f:b5:c9:f5:4b:4f:20:ba:65:cf:af:
                    ad:ad
                Exponent: 65537 (0x10001)
        X509v3 extensions:
            X509v3 Key Usage: 
                Digital Signature, Key Encipherment
            X509v3 Basic Constraints: 
                CA:FALSE
            Netscape Cert Type: 
                SSL Server
            Netscape Comment: 
                OpenSSL Generated Server Certificate
            X509v3 Subject Key Identifier: 
                E5:25:6D:3E:AF:0D:DD:3F:4C:F2:45:19:39:D5:14:DB:7E:9C:C0:AD
            X509v3 Authority Key Identifier: 
                keyid:F4:A7:C0:CC:91:46:AF:64:F3:91:F2:27:F8:C8:B2:6F:8A:87:32:73
                DirName:/C=DE/ST=Hessen/O=privacyidea/CN=CA001
                serial:FB:C8:EB:AC:83:CD:12:07

            X509v3 Extended Key Usage: 
                TLS Web Server Authentication
    Signature Algorithm: sha256WithRSAEncryption
         22:3a:75:52:02:64:a4:d3:f9:50:69:ee:b3:76:e7:1e:e1:76:
         c6:dd:76:5c:4f:89:54:0d:f9:cf:6e:93:b2:03:ef:f4:41:fb:
         a4:f1:70:57:65:da:7f:94:00:27:f6:f0:66:6c:22:9b:e3:9b:
         c0:f6:f2:82:29:5a:b1:c4:5d:43:35:ce:2e:e6:0a:63:e8:69:
         8f:f8:8c:4a:5b:b1:8a:f0:60:06:81:a6:e5:d5:25:b1:91:f4:
         9a:ec:8d:3f:50:7a:de:03:c0:9d:78:ec:26:2d:47:a7:b3:c2:
         a1:ab:57:a9:be:c9:0c:e9:e7:d8:4a:60:50:10:a7:e6:e8:d3:
         62:44:32:b7:e7:e8:5b:57:18:4e:dd:d5:f0:95:9b:13:f4:90:
         5c:a3:17:6c:56:74:af:6f:a9:e1:8c:c1:43:fb:1f:2e:45:e4:
         24:b5:21:02:84:70:e5:80:ef:33:63:ea:72:d2:c6:3f:1c:d2:
         b5:ba:4c:e5:9e:04:b6:6c:11:77:fd:2a:05:66:62:43:c5:63:
         72:bb:87:92:0b:68:79:8e:76:74:e8:53:c4:03:d4:e6:99:e2:
         fc:0e:f7:19:87:87:46:05:75:f3:c8:cb:1e:f8:93:88:02:9e:
         81:0d:c6:9e:9f:79:c5:26:41:3d:fa:05:eb:dd:05:9d:2d:10:
         e0:73:04:64
-----BEGIN CERTIFICATE-----
MIIECTCCAvGgAwIBAgIEEAAA1DANBgkqhkiG9w0BAQsFADBEMQswCQYDVQQGEwJE
RTEPMA0GA1UECAwGSGVzc2VuMRQwEgYDVQQKDAtwcml2YWN5aWRlYTEOMAwGA1UE
AwwFQ0EwMDEwHhcNMTgwMTI0MTYyOTA1WhcNMjAwMjEzMTYyOTA1WjA3MRMwEQYD
VQQDDApTdGV2ZSBUZXN0MSAwHgYJKoZIhvcNAQkBFhFzdGV2ZUBvcGVuc3NsLm9y
ZzCCASIwDQYJKoZIhvcNAQEBBQADggEPADCCAQoCggEBANKBiSBRSA9z9BEyJNUf
HP1c9bbmxfBSgdzSr2ZKfJMxYVyv0W0GcANgfHIMiN1JzZ4CbNJa11MP89q+aWS1
DwwA47NQR6Ozm7oTUNZYWkurOeARygonZwN4ImZtkh4bXEmu5mvRjjudBtPGrE1T
QxCr6JbBh4KXmY8g05kSNzGE4Yr/KQNfIpA+f5vgIMGt3K5MORoxlhcCjLLZtA0g
Ept9hlT9M/3BKmJG+GCWz24BbyLfE0fnl+wFciOjYvj676yccvA3yy83z5CoJ1GG
xtd4CI9+JaIVcKL7HLYVXqCXi4FMCSiKJzuUvHHbW3E3misW4G+1yfVLTyC6Zc+v
ra0CAwEAAaOCAQ4wggEKMAsGA1UdDwQEAwIFoDAJBgNVHRMEAjAAMBEGCWCGSAGG
+EIBAQQEAwIGQDAzBglghkgBhvhCAQ0EJhYkT3BlblNTTCBHZW5lcmF0ZWQgU2Vy
dmVyIENlcnRpZmljYXRlMB0GA1UdDgQWBBTlJW0+rw3dP0zyRRk51RTbfpzArTB0
BgNVHSMEbTBrgBT0p8DMkUavZPOR8if4yLJviocyc6FIpEYwRDELMAkGA1UEBhMC
REUxDzANBgNVBAgMBkhlc3NlbjEUMBIGA1UECgwLcHJpdmFjeWlkZWExDjAMBgNV
BAMMBUNBMDAxggkA+8jrrIPNEgcwEwYDVR0lBAwwCgYIKwYBBQUHAwEwDQYJKoZI
hvcNAQELBQADggEBACI6dVICZKTT+VBp7rN25x7hdsbddlxPiVQN+c9uk7ID7/RB
+6TxcFdl2n+UACf28GZsIpvjm8D28oIpWrHEXUM1zi7mCmPoaY/4jEpbsYrwYAaB
puXVJbGR9JrsjT9Qet4DwJ147CYtR6ezwqGrV6m+yQzp59hKYFAQp+bo02JEMrfn
6FtXGE7d1fCVmxP0kFyjF2xWdK9vqeGMwUP7Hy5F5CS1IQKEcOWA7zNj6nLSxj8c
0rW6TOWeBLZsEXf9KgVmYkPFY3K7h5ILaHmOdnToU8QD1OaZ4vwO9xmHh0YFdfPI
yx74k4gCnoENxp6fecUmQT36BevdBZ0tEOBzBGQ=
-----END CERTIFICATE-----
