Certificate:
    Data:
        Version: 3 (0x2)
        Serial Number: 268435667 (0x100000d3)
    Signature Algorithm: sha256WithRSAEncryption
        Issuer: C=DE, ST=Hessen, O=privacyidea, CN=CA001
        Validity
            Not Before: Jan 24 16:29:05 2018 GMT
            Not After : Jan 24 16:29:05 2019 GMT
        Subject: CN=Steve Test/emailAddress=steve@openssl.org
        Subject Public Key Info:
            Public Key Algorithm: rsaEncryption
                Public-Key: (2048 bit)
                Modulus:
                    00:d2:81:89:20:51:48:0f:73:f4:11:32:24:d5:1f:
                    1c:fd:5c:f5:b6:e6:c5:f0:52:81:dc:d2:af:66:4a:
                    7c:93:31:61:5c:af:d1:6d:06:70:03:60:7c:72:0c:
                    88:dd:49:cd:9e:02:6c:d2:5a:d7:53:0f:f3:da:be:
                    69:64:b5:0f:0c:00:e3:b3:50:47:a3:b3:9b:ba:13:
                    50:d6:58:5a:4b:ab:39:e0:11:ca:0a:27:67:03:78:
                    22:66:6d:92:1e:1b:5c:49:ae:e6:6b:d1:8e:3b:9d:
                    06:d3:c6:ac:4d:53:43:10:ab:e8:96:c1:87:82:97:
                    99:8f:20:d3:99:12:37:31:84:e1:8a:ff:29:03:5f:
                    22:90:3e:7f:9b:e0:20:c1:ad:dc:ae:4c:39:1a:31:
                    96:17:02:8c:b2:d9:b4:0d:20:12:9b:7d:86:54:fd:
                    33:fd:c1:2a:62:46:f8:60:96:cf:6e:01:6f:22:df:
                    13:47:e7:97:ec:05:72:23:a3:62:f8:fa:ef:ac:9c:
                    72:f0:37:cb:2f:37:cf:90:a8:27:51:86:c6:d7:78:
                    08:8f:7e:25:a2:15:70:a2:fb:1c:b6:15:5e:a0:97:
                    8b:81:4c:09:28:8a:27:3b:94:bc:71:db:5b:71:37:
                    9a:2b:16:e0:6f:b5:c9:f5:4b:4f:20:ba:65:cf:af:
                    ad:ad
                Exponent: 65537 (0x10001)
        X509v3 extensions:
            X509v3 Key Usage: 
                Digital Signature, Key Encipherment
            X509v3 Basic Constraints: 
                CA:FALSE
            Netscape Cert Type: 
                SSL Server
            Netscape Comment: 
                OpenSSL Generated Server Certificate
            X509v3 Subject Key Identifier: 
                E5:25:6D:3E:AF:0D:DD:3F:4C:F2:45:19:39:D5:14:DB:7E:9C:C0:AD
            X509v3 Authority Key Identifier: 
                keyid:F4:A7:C0:CC:91:46:AF:64:F3:91:F2:27:F8:C8:B2:6F:8A:87:32:73
                DirName:/C=DE/ST=Hessen/O=privacyidea/CN=CA001
                serial:FB:C8:EB:AC:83:CD:12:07

            X509v3 Extended Key Usage: 
                TLS Web Server Authentication
    Signature Algorithm: sha256WithRSAEncryption
         52:74:78:79:0a:5c:3a:eb:0b:b9:6a:8f:2d:82:9a:02:16:5a:
         5b:9f:e2:c6:93:0e:c0:c7:02:39:6d:7c:f2:9b:1f:eb:fc:52:
         45:ac:28:34:8d:37:05:46:0a:8d:6b:50:85:39:0a:f9:b6:29:
         f1:61:e2:aa:09:02:b7:a6:8d:df:3a:a8:3f:f2:ef:59:7a:71:
         34:ff:09:f9:4f:07:38:b9:4c:5e:44:6d:57:66:e4:0f:35:b5:
         f0:bd:cf:e3:51:3c:e9:a5:0a:a3:95:0e:ff:9b:c0:fd:a0:c3:
         8c:a3:d4:fa:54:4e:7f:42:7a:52:1c:a9:0e:bc:88:5d:05:fc:
         46:5d:1c:ec:fe:c6:89:2e:56:4a:39:8a:95:3c:62:4b:5d:3a:
         84:61:7b:91:ee:c0:56:29:e1:0b:9f:5a:9e:d8:ca:02:fc:03:
         da:7f:f7:9b:d4:5f:b8:34:dd:8b:30:47:be:fd:02:f0:2d:a9:
         90:c7:b4:6a:be:e8:62:49:08:a4:f7:b2:db:8c:c0:b0:f4:46:
         fd:d8:5c:4e:ca:72:f0:16:1a:12:34:11:99:ae:91:e3:83:c4:
         93:8d:b1:82:46:74:0a:96:08:79:86:f3:03:33:4b:1c:1b:46:
         7b:3b:e7:0f:50:65:f5:5b:63:24:b3:87:18:b4:8e:af:bd:1b:
         bb:9c:4d:60
-----BEGIN CERTIFICATE-----
MIIECTCCAvGgAwIBAgIEEAAA0zANBgkqhkiG9w0BAQsFADBEMQswCQYDVQQGEwJE
RTEPMA0GA1UECAwGSGVzc2VuMRQwEgYDVQQKDAtwcml2YWN5aWRlYTEOMAwGA1UE
AwwFQ0EwMDEwHhcNMTgwMTI0MTYyOTA1WhcNMTkwMTI0MTYyOTA1WjA3MRMwEQYD
VQQDDApTdGV2ZSBUZXN0MSAwHgYJKoZIhvcNAQkBFhFzdGV2ZUBvcGVuc3NsLm9y
ZzCCASIwDQYJKoZIhvcNAQEBBQADggEPADCCAQoCggEBANKBiSBRSA9z9BEyJNUf
HP1c9bbmxfBSgdzSr2ZKfJMxYVyv0W0GcANgfHIMiN1JzZ4CbNJa11MP89q+aWS1
DwwA47NQR6Ozm7oTUNZYWkurOeARygonZwN4ImZtkh4bXEmu5mvRjjudBtPGrE1T
QxCr6JbBh4KXmY8g05kSNzGE4Yr/KQNfIpA+f5vgIMGt3K5MORoxlhcCjLLZtA0g
Ept9hlT9M/3BKmJG+GCWz24BbyLfE0fnl+wFciOjYvj676yccvA3yy83z5CoJ1GG
xtd4CI9+JaIVcKL7HLYVXqCXi4FMCSiKJzuUvHHbW3E3misW4G+1yfVLTyC6Zc+v
ra0CAwEAAaOCAQ4wggEKMAsGA1UdDwQEAwIFoDAJBgNVHRMEAjAAMBEGCWCGSAGG
+EIBAQQEAwIGQDAzBglghkgBhvhCAQ0EJhYkT3BlblNTTCBHZW5lcmF0ZWQgU2Vy
dmVyIENlcnRpZmljYXRlMB0GA1UdDgQWBBTlJW0+rw3dP0zyRRk51RTbfpzArTB0
BgNVHSMEbTBrgBT0p8DMkUavZPOR8if4yLJviocyc6FIpEYwRDELMAkGA1UEBhMC
REUxDzANBgNVBAgMBkhlc3NlbjEUMBIGA1UECgwLcHJpdmFjeWlkZWExDjAMBgNV
BAMMBUNBMDAxggkA+8jrrIPNEgcwEwYDVR0lBAwwCgYIKwYBBQUHAwEwDQYJKoZI
hvcNAQELBQADggEBAFJ0eHkKXDrrC7lqjy2CmgIWWluf4saTDsDHAjltfPKbH+v8
UkWsKDSNNwVGCo1rUIU5Cvm2KfFh4qoJAremjd86qD/y71l6cTT/CflPBzi5TF5E
bVdm5A81tfC9z+NRPOmlCqOVDv+bwP2gw4yj1PpUTn9CelIcqQ68iF0F/EZdHOz+
xokuVko5ipU8YktdOoRhe5HuwFYp4QufWp7YygL8A9p/95vUX7g03YswR779AvAt
qZDHtGq+6GJJCKT3stuMwLD0Rv3YXE7KcvAWGhI0EZmukeODxJONsYJGdAqWCHmG
8wMzSxwbRns75w9QZfVbYySzhxi0jq+9G7ucTWA=
-----END CERTIFICATE-----
