Certificate:
    Data:
        Version: 3 (0x2)
        Serial Number: 268435671 (0x100000d7)
    Signature Algorithm: sha256WithRSAEncryption
        Issuer: C=DE, ST=Hessen, O=privacyidea, CN=CA001
        Validity
            Not Before: Jan 24 16:41:09 2018 GMT
            Not After : Jan 24 16:41:09 2019 GMT
        Subject: CN=selfservice,CN=user,O=realm1/emailAddress=meine
        Subject Public Key Info:
            Public Key Algorithm: rsaEncryption
                Public-Key: (2048 bit)
                Modulus:
                    00:cf:3c:d4:33:0e:12:c4:e6:da:cd:b6:56:a1:1c:
                    26:bb:26:1c:8a:4a:73:a8:58:8a:b6:1e:b3:8b:99:
                    d2:1d:07:c2:92:89:79:c0:69:d8:c8:df:28:61:98:
                    1e:b3:fe:ae:2b:bd:78:a9:f7:6e:47:dc:a3:a0:16:
                    8c:85:02:c1:4e:92:fd:72:6e:f0:c8:03:29:9b:b8:
                    00:6e:c0:83:95:c8:34:20:36:9c:b3:e5:e4:e6:76:
                    73:a3:1a:ad:40:96:e0:53:54:00:ec:76:79:9a:c6:
                    0d:7e:b6:bd:29:ec:83:f3:cb:89:a4:cb:6c:00:ba:
                    0c:c5:78:0f:ff:69:b8:94:f4:04:70:43:3f:d8:9e:
                    d7:a7:fb:5d:ce:75:8e:da:e7:c4:07:b1:9d:de:6f:
                    88:4b:b6:4d:9a:cf:f9:bc:fa:9f:cd:32:6d:f6:3a:
                    0b:0d:23:42:78:ec:97:42:bf:0e:4d:60:56:e1:d3:
                    02:f2:19:cb:84:57:90:e5:70:a1:a2:83:35:86:e2:
                    da:86:9f:f9:8a:c4:79:b3:52:28:da:cb:bb:34:ca:
                    d3:da:91:4a:cf:8d:76:a2:b2:6b:9b:f9:96:fd:09:
                    2a:da:11:23:4d:f0:cb:d6:b2:b1:0e:12:6c:9a:19:
                    65:98:87:ca:e4:ee:24:ce:44:ac:90:8f:9d:1b:c5:
                    2a:9d
                Exponent: 65537 (0x10001)
        X509v3 extensions:
            X509v3 Key Usage: 
                Digital Signature, Key Encipherment
            X509v3 Basic Constraints: 
                CA:FALSE
            Netscape Cert Type: 
                SSL Server
            Netscape Comment: 
                OpenSSL Generated Server Certificate
            X509v3 Subject Key Identifier: 
                4D:07:90:AD:FF:1D:0D:E7:1A:DD:D6:2E:FA:BA:34:CB:AA:1F:24:C6
            X509v3 Authority Key Identifier: 
                keyid:F4:A7:C0:CC:91:46:AF:64:F3:91:F2:27:F8:C8:B2:6F:8A:87:32:73
                DirName:/C=DE/ST=Hessen/O=privacyidea/CN=CA001
                serial:FB:C8:EB:AC:83:CD:12:07

            X509v3 Extended Key Usage: 
                TLS Web Server Authentication
    Signature Algorithm: sha256WithRSAEncryption
         14:e5:70:7d:f6:f2:f5:6c:5e:43:f4:39:74:10:38:c2:53:94:
         ae:e9:2e:22:df:46:e0:61:3e:95:f6:7f:db:dd:71:4e:22:b3:
         03:ed:46:8a:3b:22:00:d8:3a:c2:18:87:60:d6:91:fd:d9:8b:
         88:5b:76:99:e3:79:40:fc:d0:b4:55:fb:dc:3a:03:19:f1:43:
         8e:1e:c1:a7:b8:63:8a:b1:43:00:1e:98:bf:9f:ad:79:f3:8d:
         4e:ac:e3:85:ce:0e:db:05:d3:30:56:01:41:15:df:0e:83:a7:
         db:50:00:2c:8c:cc:12:1f:12:0c:e2:d8:c7:23:a4:a9:8b:5b:
         fb:60:b3:36:d2:6b:ae:ae:1a:88:62:7a:ef:ae:67:5f:9f:40:
         8c:84:0d:36:fd:60:1d:9f:8f:73:d5:67:ac:48:9c:f7:fa:0a:
         70:8b:5a:5c:26:b6:23:74:7f:ae:f6:4e:e4:d4:a3:66:c6:21:
         f1:0b:f7:e8:e4:52:07:e4:17:bd:4f:ba:0b:79:0c:6f:cd:55:
         3c:3a:f7:44:ec:c6:f1:da:2c:f6:5c:1f:12:f3:bd:71:bf:3a:
         f4:d6:61:bf:2e:a3:d7:f1:f0:79:2b:ef:82:ae:e8:d5:8b:0e:
         ab:7a:24:21:59:c3:74:19:fd:fd:32:24:3f:b8:bd:95:1e:c8:
         ed:70:34:0a
-----BEGIN CERTIFICATE-----
MIIEDzCCAvegAwIBAgIEEAAA1zANBgkqhkiG9w0BAQsFADBEMQswCQYDVQQGEwJE
RTEPMA0GA1UECAwGSGVzc2VuMRQwEgYDVQQKDAtwcml2YWN5aWRlYTEOMAwGA1UE
AwwFQ0EwMDEwHhcNMTgwMTI0MTY0MTA5WhcNMTkwMTI0MTY0MTA5WjA9MSUwIwYD
VQQDDBxzZWxmc2VydmljZSxDTj11c2VyLE89cmVhbG0xMRQwEgYJKoZIhvcNAQkB
FgVtZWluZTCCASIwDQYJKoZIhvcNAQEBBQADggEPADCCAQoCggEBAM881DMOEsTm
2s22VqEcJrsmHIpKc6hYirYes4uZ0h0HwpKJecBp2MjfKGGYHrP+riu9eKn3bkfc
o6AWjIUCwU6S/XJu8MgDKZu4AG7Ag5XINCA2nLPl5OZ2c6MarUCW4FNUAOx2eZrG
DX62vSnsg/PLiaTLbAC6DMV4D/9puJT0BHBDP9ie16f7Xc51jtrnxAexnd5viEu2
TZrP+bz6n80ybfY6Cw0jQnjsl0K/Dk1gVuHTAvIZy4RXkOVwoaKDNYbi2oaf+YrE
ebNSKNrLuzTK09qRSs+NdqKya5v5lv0JKtoRI03wy9aysQ4SbJoZZZiHyuTuJM5E
rJCPnRvFKp0CAwEAAaOCAQ4wggEKMAsGA1UdDwQEAwIFoDAJBgNVHRMEAjAAMBEG
CWCGSAGG+EIBAQQEAwIGQDAzBglghkgBhvhCAQ0EJhYkT3BlblNTTCBHZW5lcmF0
ZWQgU2VydmVyIENlcnRpZmljYXRlMB0GA1UdDgQWBBRNB5Ct/x0N5xrd1i76ujTL
qh8kxjB0BgNVHSMEbTBrgBT0p8DMkUavZPOR8if4yLJviocyc6FIpEYwRDELMAkG
A1UEBhMCREUxDzANBgNVBAgMBkhlc3NlbjEUMBIGA1UECgwLcHJpdmFjeWlkZWEx
DjAMBgNVBAMMBUNBMDAxggkA+8jrrIPNEgcwEwYDVR0lBAwwCgYIKwYBBQUHAwEw
DQYJKoZIhvcNAQELBQADggEBABTlcH328vVsXkP0OXQQOMJTlK7pLiLfRuBhPpX2
f9vdcU4iswPtRoo7IgDYOsIYh2DWkf3Zi4hbdpnjeUD80LRV+9w6AxnxQ44ewae4
Y4qxQwAemL+frXnzjU6s44XODtsF0zBWAUEV3w6Dp9tQACyMzBIfEgzi2McjpKmL
W/tgszbSa66uGohieu+uZ1+fQIyEDTb9YB2fj3PVZ6xInPf6CnCLWlwmtiN0f672
TuTUo2bGIfEL9+jkUgfkF71Pugt5DG/NVTw690TsxvHaLPZcHxLzvXG/OvTWYb8u
o9fx8Hkr74Ku6NWLDqt6JCFZw3QZ/f0yJD+4vZUeyO1wNAo=
-----END CERTIFICATE-----
