Certificate:
    Data:
        Version: 3 (0x2)
        Serial Number: 268435666 (0x100000d2)
    Signature Algorithm: sha256WithRSAEncryption
        Issuer: C=DE, ST=Hessen, O=privacyidea, CN=CA001
        Validity
            Not Before: Jan 24 16:29:04 2018 GMT
            Not After : Jan 24 16:29:04 2019 GMT
        Subject: C=DE, ST=Hessen, O=privacyidea, CN=usercert
        Subject Public Key Info:
            Public Key Algorithm: rsaEncryption
                Public-Key: (2048 bit)
                Modulus:
                    00:dc:2f:d1:5f:29:97:d4:7c:c3:53:c8:30:bd:4b:
                    67:70:2c:24:6b:b8:5e:eb:21:7a:48:12:56:7c:81:
                    5c:48:75:b6:68:eb:f6:f2:98:4e:50:51:d1:7f:6c:
                    73:f3:0a:a7:ae:be:48:5e:e5:d6:e1:d9:2a:7c:32:
                    6e:4e:fd:08:f6:5a:54:49:23:73:c3:b9:07:18:d1:
                    ef:b3:ac:f8:8a:dc:94:96:a4:90:3a:8e:74:df:e6:
                    0d:37:1b:bd:5b:b7:25:1a:56:39:da:6f:91:aa:5e:
                    1c:74:f3:f9:7c:14:01:83:12:65:76:c7:bb:fe:36:
                    5b:95:e9:72:65:83:ed:3e:98:30:71:fa:87:dd:a3:
                    36:5a:30:03:2e:26:e0:61:d1:bf:02:3f:b6:06:1f:
                    4a:89:28:1c:5c:a2:ff:4e:be:94:e6:8c:e0:da:82:
                    f1:9d:29:32:48:30:73:b4:04:f6:42:1e:be:f7:e2:
                    32:32:27:3c:9d:89:2f:70:3e:85:9a:6f:5c:c5:09:
                    c0:8c:32:2f:72:22:c9:d2:95:1f:b6:ac:72:60:72:
                    b7:82:4d:6b:ce:5b:e3:00:d0:d2:2f:58:c6:e0:10:
                    e5:51:ca:4d:3b:2e:e6:7e:ab:84:d6:56:f1:93:35:
                    a0:93:64:26:81:75:2f:91:b5:16:06:38:0b:db:cc:
                    2d:07
                Exponent: 65537 (0x10001)
        X509v3 extensions:
            X509v3 Key Usage: 
                Digital Signature, Key Encipherment
            X509v3 Basic Constraints: 
                CA:FALSE
            Netscape Cert Type: 
                SSL Server
            Netscape Comment: 
                OpenSSL Generated Server Certificate
            X509v3 Subject Key Identifier: 
                FC:14:D1:F0:4B:8D:00:90:F2:F5:B8:71:9E:4E:97:C3:92:54:AD:0B
            X509v3 Authority Key Identifier: 
                keyid:F4:A7:C0:CC:91:46:AF:64:F3:91:F2:27:F8:C8:B2:6F:8A:87:32:73
                DirName:/C=DE/ST=Hessen/O=privacyidea/CN=CA001
                serial:FB:C8:EB:AC:83:CD:12:07

            X509v3 Extended Key Usage: 
                TLS Web Server Authentication
    Signature Algorithm: sha256WithRSAEncryption
         ba:20:9c:55:ea:2e:6f:12:9d:58:06:8b:c4:ad:ec:92:b2:b3:
         5d:51:60:2a:db:71:ee:4d:cf:e6:87:95:55:0c:3b:e3:7a:89:
         5d:b8:40:ae:a6:8a:71:10:00:09:3a:df:fe:aa:2f:f1:5e:4e:
         a8:4a:68:83:be:b2:4f:29:62:d3:9a:9f:a5:13:48:0a:0e:2c:
         3d:c1:57:74:8b:6a:3b:aa:a8:c7:48:cf:f8:db:ad:b3:85:33:
         7f:af:7f:4a:25:24:b9:76:5b:66:85:73:30:30:01:85:bf:cc:
         3d:10:67:67:40:cc:ef:25:3d:e4:50:86:1d:cf:68:db:3b:7e:
         e0:25:b5:14:e7:22:fe:b5:8f:d2:1c:9b:94:e6:9f:64:83:1b:
         4c:ea:03:d2:cc:66:e8:1d:e8:be:80:a8:20:11:85:42:5c:fe:
         7f:2d:2f:1f:84:e1:20:69:2b:e9:6d:a3:1f:bb:fb:3d:92:d9:
         a6:f9:56:e2:65:93:40:77:95:04:9c:b6:9e:77:9a:d8:a6:82:
         dd:20:f6:ba:55:24:f5:a7:7e:93:79:04:74:5e:91:85:b9:bc:
         e5:eb:c3:0b:46:d9:bf:b3:64:87:39:68:5b:62:a0:42:ea:72:
         7a:4c:54:e0:ad:78:8b:be:b7:a9:94:e6:4f:93:f9:b0:85:df:
         6a:f2:cd:76
-----BEGIN CERTIFICATE-----
MIIEGTCCAwGgAwIBAgIEEAAA0jANBgkqhkiG9w0BAQsFADBEMQswCQYDVQQGEwJE
RTEPMA0GA1UECAwGSGVzc2VuMRQwEgYDVQQKDAtwcml2YWN5aWRlYTEOMAwGA1UE
AwwFQ0EwMDEwHhcNMTgwMTI0MTYyOTA0WhcNMTkwMTI0MTYyOTA0WjBHMQswCQYD
VQQGEwJERTEPMA0GA1UECAwGSGVzc2VuMRQwEgYDVQQKDAtwcml2YWN5aWRlYTER
MA8GA1UEAwwIdXNlcmNlcnQwggEiMA0GCSqGSIb3DQEBAQUAA4IBDwAwggEKAoIB
AQDcL9FfKZfUfMNTyDC9S2dwLCRruF7rIXpIElZ8gVxIdbZo6/bymE5QUdF/bHPz
Cqeuvkhe5dbh2Sp8Mm5O/Qj2WlRJI3PDuQcY0e+zrPiK3JSWpJA6jnTf5g03G71b
tyUaVjnab5GqXhx08/l8FAGDEmV2x7v+NluV6XJlg+0+mDBx+ofdozZaMAMuJuBh
0b8CP7YGH0qJKBxcov9OvpTmjODagvGdKTJIMHO0BPZCHr734jIyJzydiS9wPoWa
b1zFCcCMMi9yIsnSlR+2rHJgcreCTWvOW+MA0NIvWMbgEOVRyk07LuZ+q4TWVvGT
NaCTZCaBdS+RtRYGOAvbzC0HAgMBAAGjggEOMIIBCjALBgNVHQ8EBAMCBaAwCQYD
VR0TBAIwADARBglghkgBhvhCAQEEBAMCBkAwMwYJYIZIAYb4QgENBCYWJE9wZW5T
U0wgR2VuZXJhdGVkIFNlcnZlciBDZXJ0aWZpY2F0ZTAdBgNVHQ4EFgQU/BTR8EuN
AJDy9bhxnk6Xw5JUrQswdAYDVR0jBG0wa4AU9KfAzJFGr2TzkfIn+Miyb4qHMnOh
SKRGMEQxCzAJBgNVBAYTAkRFMQ8wDQYDVQQIDAZIZXNzZW4xFDASBgNVBAoMC3By
aXZhY3lpZGVhMQ4wDAYDVQQDDAVDQTAwMYIJAPvI66yDzRIHMBMGA1UdJQQMMAoG
CCsGAQUFBwMBMA0GCSqGSIb3DQEBCwUAA4IBAQC6IJxV6i5vEp1YBovEreySsrNd
UWAq23HuTc/mh5VVDDvjeolduECupopxEAAJOt/+qi/xXk6oSmiDvrJPKWLTmp+l
E0gKDiw9wVd0i2o7qqjHSM/4262zhTN/r39KJSS5dltmhXMwMAGFv8w9EGdnQMzv
JT3kUIYdz2jbO37gJbUU5yL+tY/SHJuU5p9kgxtM6gPSzGboHei+gKggEYVCXP5/
LS8fhOEgaSvpbaMfu/s9ktmm+VbiZZNAd5UEnLaed5rYpoLdIPa6VST1p36TeQR0
XpGFubzl68MLRtm/s2SHOWhbYqBC6nJ6TFTgrXiLvreplOZPk/mwhd9q8s12
-----END CERTIFICATE-----
