Certificate:
    Data:
        Version: 3 (0x2)
        Serial Number: 268435669 (0x100000d5)
    Signature Algorithm: sha256WithRSAEncryption
        Issuer: C=DE, ST=Hessen, O=privacyidea, CN=CA001
        Validity
            Not Before: Jan 24 16:33:05 2018 GMT
            Not After : Jan 24 16:33:05 2019 GMT
        Subject: C=DE, ST=Hessen, O=privacyidea, CN=requester.localdomain
        Subject Public Key Info:
            Public Key Algorithm: rsaEncryption
                Public-Key: (2048 bit)
                Modulus:
                    00:cd:be:14:4f:fa:ce:01:3f:42:22:1b:1d:9c:af:
                    dd:92:d2:7f:db:6c:b7:3e:39:43:43:6b:13:03:f1:
                    05:f4:07:74:bc:76:69:28:0b:af:19:8e:d7:fc:e3:
                    cd:c6:58:f2:ca:7f:08:6d:53:fc:07:02:44:24:c6:
                    b4:34:4c:8c:04:fe:33:0e:40:e2:20:ba:02:73:5a:
                    f7:f5:4f:63:6e:cc:c6:b6:df:54:1d:37:39:7d:51:
                    36:26:5f:bd:dc:3f:a8:8b:6b:a2:ae:b6:9d:d6:21:
                    e7:df:41:b8:7a:28:2a:68:48:ca:a8:2d:ed:e1:e9:
                    46:5e:5a:72:6d:b4:84:38:87:91:fd:94:11:0b:28:
                    84:c6:c2:2f:2a:fb:01:f9:36:7a:09:75:d1:33:88:
                    3c:73:41:5b:c8:bf:94:89:70:a1:f0:c0:b9:2e:50:
                    53:1e:b1:17:64:69:f4:2d:81:e0:a9:0d:0e:32:e9:
                    ba:55:8a:85:f1:1b:6f:49:79:b4:7f:88:c3:0d:3e:
                    54:88:9b:3d:1f:38:8c:04:f3:ee:6a:63:2b:f5:c6:
                    db:b4:83:aa:c4:78:41:3a:7d:4b:e1:c8:3e:71:ca:
                    1b:61:59:ea:c6:c4:ca:32:5e:c9:e9:bf:12:29:e6:
                    c6:c3:63:fe:a0:55:da:7a:f1:60:98:4d:26:ed:fa:
                    70:2d
                Exponent: 65537 (0x10001)
        X509v3 extensions:
            X509v3 Key Usage: 
                Digital Signature, Key Encipherment
            X509v3 Basic Constraints: 
                CA:FALSE
            Netscape Cert Type: 
                SSL Server
            Netscape Comment: 
                OpenSSL Generated Server Certificate
            X509v3 Subject Key Identifier: 
                53:3F:ED:5D:09:07:B3:65:7B:AB:45:C9:24:5B:09:77:80:0A:96:ED
            X509v3 Authority Key Identifier: 
                keyid:F4:A7:C0:CC:91:46:AF:64:F3:91:F2:27:F8:C8:B2:6F:8A:87:32:73
                DirName:/C=DE/ST=Hessen/O=privacyidea/CN=CA001
                serial:FB:C8:EB:AC:83:CD:12:07

            X509v3 Extended Key Usage: 
                TLS Web Server Authentication
    Signature Algorithm: sha256WithRSAEncryption
         91:4b:6f:0a:43:12:89:6f:96:50:2e:42:b3:56:11:94:da:f3:
         08:08:e6:cf:51:3b:27:91:79:38:00:bd:60:0d:71:c1:00:4e:
         5b:c1:b8:84:97:dc:ac:ab:d4:34:fe:03:ed:ed:2b:5a:c9:d5:
         54:b9:92:63:3f:fb:35:72:fd:8c:38:ef:99:37:7a:98:94:ce:
         38:7f:9d:5e:e6:d6:1c:1d:5a:63:73:e1:95:3e:72:a3:b6:59:
         c6:e6:97:04:4c:a0:ee:f7:1b:bf:f2:76:37:80:8e:1a:9f:99:
         6d:37:f5:ca:ac:c8:2d:31:7b:0c:97:1c:4c:b0:24:27:cb:b6:
         e8:b7:31:a7:49:11:0a:16:c8:e7:2b:99:21:6e:2a:5e:5a:2e:
         05:3f:ac:bd:7c:35:c7:cf:64:f4:d4:dd:10:51:5d:50:e6:7c:
         43:e3:d0:df:17:57:dd:9a:61:cd:fa:8e:72:e9:99:59:bc:06:
         03:cb:0a:d2:68:e6:f4:1c:0d:56:cc:79:0d:62:02:95:a6:e2:
         c1:e3:d6:5c:3f:94:e0:8b:36:6e:fc:af:25:1a:db:63:49:68:
         90:ac:83:8d:ed:d8:e4:e0:68:12:72:6e:5b:b7:13:ad:c0:ae:
         9d:04:63:34:71:61:b8:bb:6c:c7:31:52:28:e1:3a:21:76:ce:
         7b:d9:12:03
-----BEGIN CERTIFICATE-----
MIIEJjCCAw6gAwIBAgIEEAAA1TANBgkqhkiG9w0BAQsFADBEMQswCQYDVQQGEwJE
RTEPMA0GA1UECAwGSGVzc2VuMRQwEgYDVQQKDAtwcml2YWN5aWRlYTEOMAwGA1UE
AwwFQ0EwMDEwHhcNMTgwMTI0MTYzMzA1WhcNMTkwMTI0MTYzMzA1WjBUMQswCQYD
VQQGEwJERTEPMA0GA1UECAwGSGVzc2VuMRQwEgYDVQQKDAtwcml2YWN5aWRlYTEe
MBwGA1UEAwwVcmVxdWVzdGVyLmxvY2FsZG9tYWluMIIBIjANBgkqhkiG9w0BAQEF
AAOCAQ8AMIIBCgKCAQEAzb4UT/rOAT9CIhsdnK/dktJ/22y3PjlDQ2sTA/EF9Ad0
vHZpKAuvGY7X/OPNxljyyn8IbVP8BwJEJMa0NEyMBP4zDkDiILoCc1r39U9jbszG
tt9UHTc5fVE2Jl+93D+oi2uirrad1iHn30G4eigqaEjKqC3t4elGXlpybbSEOIeR
/ZQRCyiExsIvKvsB+TZ6CXXRM4g8c0FbyL+UiXCh8MC5LlBTHrEXZGn0LYHgqQ0O
Mum6VYqF8RtvSXm0f4jDDT5UiJs9HziMBPPuamMr9cbbtIOqxHhBOn1L4cg+ccob
YVnqxsTKMl7J6b8SKebGw2P+oFXaevFgmE0m7fpwLQIDAQABo4IBDjCCAQowCwYD
VR0PBAQDAgWgMAkGA1UdEwQCMAAwEQYJYIZIAYb4QgEBBAQDAgZAMDMGCWCGSAGG
+EIBDQQmFiRPcGVuU1NMIEdlbmVyYXRlZCBTZXJ2ZXIgQ2VydGlmaWNhdGUwHQYD
VR0OBBYEFFM/7V0JB7Nle6tFySRbCXeACpbtMHQGA1UdIwRtMGuAFPSnwMyRRq9k
85HyJ/jIsm+KhzJzoUikRjBEMQswCQYDVQQGEwJERTEPMA0GA1UECAwGSGVzc2Vu
MRQwEgYDVQQKDAtwcml2YWN5aWRlYTEOMAwGA1UEAwwFQ0EwMDGCCQD7yOusg80S
BzATBgNVHSUEDDAKBggrBgEFBQcDATANBgkqhkiG9w0BAQsFAAOCAQEAkUtvCkMS
iW+WUC5Cs1YRlNrzCAjmz1E7J5F5OAC9YA1xwQBOW8G4hJfcrKvUNP4D7e0rWsnV
VLmSYz/7NXL9jDjvmTd6mJTOOH+dXubWHB1aY3PhlT5yo7ZZxuaXBEyg7vcbv/J2
N4COGp+ZbTf1yqzILTF7DJccTLAkJ8u26Lcxp0kRChbI5yuZIW4qXlouBT+svXw1
x89k9NTdEFFdUOZ8Q+PQ3xdX3ZphzfqOcumZWbwGA8sK0mjm9BwNVsx5DWIClabi
wePWXD+U4Is2bvyvJRrbY0lokKyDje3Y5OBoEnJuW7cTrcCunQRjNHFhuLtsxzFS
KOE6IXbOe9kSAw==
-----END CERTIFICATE-----
