Certificate:
    Data:
        Version: 3 (0x2)
        Serial Number: 268435664 (0x100000d0)
    Signature Algorithm: sha256WithRSAEncryption
        Issuer: C=DE, ST=Hessen, O=privacyidea, CN=CA001
        Validity
            Not Before: Jan 24 16:26:47 2018 GMT
            Not After : Jan 24 16:26:47 2019 GMT
        Subject: C=DE, ST=Hessen, O=privacyidea, CN=requester.localdomain
        Subject Public Key Info:
            Public Key Algorithm: rsaEncryption
                Public-Key: (2048 bit)
                Modulus:
                    00:cd:be:14:4f:fa:ce:01:3f:42:22:1b:1d:9c:af:
                    dd:92:d2:7f:db:6c:b7:3e:39:43:43:6b:13:03:f1:
                    05:f4:07:74:bc:76:69:28:0b:af:19:8e:d7:fc:e3:
                    cd:c6:58:f2:ca:7f:08:6d:53:fc:07:02:44:24:c6:
                    b4:34:4c:8c:04:fe:33:0e:40:e2:20:ba:02:73:5a:
                    f7:f5:4f:63:6e:cc:c6:b6:df:54:1d:37:39:7d:51:
                    36:26:5f:bd:dc:3f:a8:8b:6b:a2:ae:b6:9d:d6:21:
                    e7:df:41:b8:7a:28:2a:68:48:ca:a8:2d:ed:e1:e9:
                    46:5e:5a:72:6d:b4:84:38:87:91:fd:94:11:0b:28:
                    84:c6:c2:2f:2a:fb:01:f9:36:7a:09:75:d1:33:88:
                    3c:73:41:5b:c8:bf:94:89:70:a1:f0:c0:b9:2e:50:
                    53:1e:b1:17:64:69:f4:2d:81:e0:a9:0d:0e:32:e9:
                    ba:55:8a:85:f1:1b:6f:49:79:b4:7f:88:c3:0d:3e:
                    54:88:9b:3d:1f:38:8c:04:f3:ee:6a:63:2b:f5:c6:
                    db:b4:83:aa:c4:78:41:3a:7d:4b:e1:c8:3e:71:ca:
                    1b:61:59:ea:c6:c4:ca:32:5e:c9:e9:bf:12:29:e6:
                    c6:c3:63:fe:a0:55:da:7a:f1:60:98:4d:26:ed:fa:
                    70:2d
                Exponent: 65537 (0x10001)
        X509v3 extensions:
            X509v3 Key Usage: 
                Digital Signature, Key Encipherment
            X509v3 Basic Constraints: 
                CA:FALSE
            Netscape Cert Type: 
                SSL Server
            Netscape Comment: 
                OpenSSL Generated Server Certificate
            X509v3 Subject Key Identifier: 
                53:3F:ED:5D:09:07:B3:65:7B:AB:45:C9:24:5B:09:77:80:0A:96:ED
            X509v3 Authority Key Identifier: 
                keyid:F4:A7:C0:CC:91:46:AF:64:F3:91:F2:27:F8:C8:B2:6F:8A:87:32:73
                DirName:/C=DE/ST=Hessen/O=privacyidea/CN=CA001
                serial:FB:C8:EB:AC:83:CD:12:07

            X509v3 Extended Key Usage: 
                TLS Web Server Authentication
    Signature Algorithm: sha256WithRSAEncryption
         3c:02:bf:63:84:77:20:01:62:90:da:78:f8:af:05:96:04:4e:
         5b:c8:68:87:17:cf:ef:1a:57:13:34:36:f4:ce:19:85:e6:79:
         3c:79:6b:ba:44:10:5d:19:f4:fc:0c:a9:26:41:0f:2b:65:9f:
         d3:ad:6e:93:bb:9f:33:10:cd:46:aa:99:96:4a:d6:dc:52:a7:
         50:bb:10:b2:bf:bb:42:e6:f0:a6:34:da:fc:95:c1:33:bb:8f:
         4b:fd:5d:9b:cd:05:8a:5b:dd:17:f2:66:de:d8:fe:7d:98:84:
         68:c5:31:3d:bc:37:f8:20:cd:b3:70:3b:77:a9:97:91:11:9b:
         a4:f5:b7:df:18:dc:75:41:1c:07:5a:4a:32:97:a1:c1:c9:3c:
         02:33:97:ff:5f:28:6e:8d:ec:9e:88:79:a0:bc:de:8f:15:18:
         d9:76:48:a8:55:dc:7f:5d:4f:b0:8c:33:c4:b7:a0:a2:4e:b8:
         8b:71:33:cc:24:5e:7b:7d:65:16:d2:59:9a:58:04:6b:43:a2:
         dc:82:af:95:17:7d:2c:4b:c9:01:64:7b:8a:09:32:a8:86:a5:
         b5:af:e9:7d:cc:f7:b1:8c:76:52:11:a7:c8:80:7e:19:e2:1f:
         44:c9:7f:05:7c:8d:57:01:ba:3c:f3:05:2b:a3:44:2a:12:3d:
         e2:3a:7c:13
-----BEGIN CERTIFICATE-----
MIIEJjCCAw6gAwIBAgIEEAAA0DANBgkqhkiG9w0BAQsFADBEMQswCQYDVQQGEwJE
RTEPMA0GA1UECAwGSGVzc2VuMRQwEgYDVQQKDAtwcml2YWN5aWRlYTEOMAwGA1UE
AwwFQ0EwMDEwHhcNMTgwMTI0MTYyNjQ3WhcNMTkwMTI0MTYyNjQ3WjBUMQswCQYD
VQQGEwJERTEPMA0GA1UECAwGSGVzc2VuMRQwEgYDVQQKDAtwcml2YWN5aWRlYTEe
MBwGA1UEAwwVcmVxdWVzdGVyLmxvY2FsZG9tYWluMIIBIjANBgkqhkiG9w0BAQEF
AAOCAQ8AMIIBCgKCAQEAzb4UT/rOAT9CIhsdnK/dktJ/22y3PjlDQ2sTA/EF9Ad0
vHZpKAuvGY7X/OPNxljyyn8IbVP8BwJEJMa0NEyMBP4zDkDiILoCc1r39U9jbszG
tt9UHTc5fVE2Jl+93D+oi2uirrad1iHn30G4eigqaEjKqC3t4elGXlpybbSEOIeR
/ZQRCyiExsIvKvsB+TZ6CXXRM4g8c0FbyL+UiXCh8MC5LlBTHrEXZGn0LYHgqQ0O
Mum6VYqF8RtvSXm0f4jDDT5UiJs9HziMBPPuamMr9cbbtIOqxHhBOn1L4cg+ccob
YVnqxsTKMl7J6b8SKebGw2P+oFXaevFgmE0m7fpwLQIDAQABo4IBDjCCAQowCwYD
VR0PBAQDAgWgMAkGA1UdEwQCMAAwEQYJYIZIAYb4QgEBBAQDAgZAMDMGCWCGSAGG
+EIBDQQmFiRPcGVuU1NMIEdlbmVyYXRlZCBTZXJ2ZXIgQ2VydGlmaWNhdGUwHQYD
VR0OBBYEFFM/7V0JB7Nle6tFySRbCXeACpbtMHQGA1UdIwRtMGuAFPSnwMyRRq9k
85HyJ/jIsm+KhzJzoUikRjBEMQswCQYDVQQGEwJERTEPMA0GA1UECAwGSGVzc2Vu
MRQwEgYDVQQKDAtwcml2YWN5aWRlYTEOMAwGA1UEAwwFQ0EwMDGCCQD7yOusg80S
BzATBgNVHSUEDDAKBggrBgEFBQcDATANBgkqhkiG9w0BAQsFAAOCAQEAPAK/Y4R3
IAFikNp4+K8FlgROW8hohxfP7xpXEzQ29M4ZheZ5PHlrukQQXRn0/AypJkEPK2Wf
061uk7ufMxDNRqqZlkrW3FKnULsQsr+7QubwpjTa/JXBM7uPS/1dm80FilvdF/Jm
3tj+fZiEaMUxPbw3+CDNs3A7d6mXkRGbpPW33xjcdUEcB1pKMpehwck8AjOX/18o
bo3snoh5oLzejxUY2XZIqFXcf11PsIwzxLegok64i3EzzCRee31lFtJZmlgEa0Oi
3IKvlRd9LEvJAWR7igkyqIalta/pfcz3sYx2UhGnyIB+GeIfRMl/BXyNVwG6PPMF
K6NEKhI94jp8Ew==
-----END CERTIFICATE-----
