Certificate:
    Data:
        Version: 3 (0x2)
        Serial Number: 268435670 (0x100000d6)
    Signature Algorithm: sha256WithRSAEncryption
        Issuer: C=DE, ST=Hessen, O=privacyidea, CN=CA001
        Validity
            Not Before: Jan 24 16:33:06 2018 GMT
            Not After : Jan 24 16:33:06 2019 GMT
        Subject: OU=realm1, CN=cornelius/emailAddress=user@localhost.localdomain
        Subject Public Key Info:
            Public Key Algorithm: rsaEncryption
                Public-Key: (2048 bit)
                Modulus:
                    00:ba:09:8d:ca:fd:6a:1a:df:ba:f0:27:94:23:d3:
                    8f:46:c8:e8:ca:07:07:b7:10:4a:ed:01:95:0c:e5:
                    08:7d:d9:4a:2d:79:f4:44:df:be:a0:f5:1d:25:f0:
                    07:d3:20:15:50:7b:25:78:db:d0:b0:82:b4:56:1a:
                    3e:96:5b:cb:6e:f7:ff:ca:2e:9c:c7:84:51:34:eb:
                    7b:ed:2a:cf:40:d5:34:08:9a:1a:bb:af:3e:da:d5:
                    ef:0e:9e:70:7f:89:83:d7:62:33:35:2c:b1:b7:34:
                    dc:e1:31:25:f3:25:7b:25:64:bd:61:7b:22:12:87:
                    26:f5:05:c7:22:80:b5:4c:01:66:a1:a5:03:aa:4b:
                    79:fd:ba:20:b2:7d:b2:4d:f6:bb:d4:eb:13:80:13:
                    e8:42:1a:3a:72:10:0c:4b:5e:00:90:74:ac:0b:33:
                    dc:64:b2:00:4e:24:35:ad:d5:63:e1:e2:b8:c6:44:
                    31:7b:b5:89:59:e5:8d:af:28:f6:85:92:a2:3d:8b:
                    6e:8a:69:c1:25:1f:30:93:0f:ec:2e:00:89:2b:ee:
                    74:3e:77:91:a1:24:f0:59:ad:04:43:5d:d2:27:58:
                    e0:c7:b3:42:a8:1a:30:23:cc:b5:53:6f:50:af:97:
                    4a:0d:a5:21:ce:c3:b6:80:9b:fb:30:7e:12:93:ae:
                    8d:c1
                Exponent: 65537 (0x10001)
        X509v3 extensions:
            X509v3 Key Usage: 
                Digital Signature, Key Encipherment
            X509v3 Basic Constraints: 
                CA:FALSE
            Netscape Cert Type: 
                SSL Server
            Netscape Comment: 
                OpenSSL Generated Server Certificate
            X509v3 Subject Key Identifier: 
                24:85:25:A6:76:3D:E2:59:3C:86:9D:F1:D4:B8:92:E3:81:F0:A0:BC
            X509v3 Authority Key Identifier: 
                keyid:F4:A7:C0:CC:91:46:AF:64:F3:91:F2:27:F8:C8:B2:6F:8A:87:32:73
                DirName:/C=DE/ST=Hessen/O=privacyidea/CN=CA001
                serial:FB:C8:EB:AC:83:CD:12:07

            X509v3 Extended Key Usage: 
                TLS Web Server Authentication
    Signature Algorithm: sha256WithRSAEncryption
         bf:b2:77:7b:f1:67:de:7a:57:7c:63:a2:dc:94:ac:27:f7:80:
         b1:9b:26:f2:f5:b1:21:c4:d5:73:21:ea:0c:e2:5a:ad:cb:e5:
         62:ef:b2:a6:a4:47:44:3b:c4:6a:53:7b:9f:e7:45:07:8f:e4:
         57:20:5c:61:cf:09:88:40:c0:f2:b8:de:58:2f:27:b5:de:00:
         55:31:ba:83:aa:9e:ed:62:8a:8a:e7:3a:15:90:0c:be:32:7f:
         4a:26:d1:e5:28:ee:98:9c:e8:69:9c:0b:f5:4e:30:c2:1f:2d:
         28:18:c0:9e:68:05:f3:62:46:fe:11:a0:61:66:44:52:04:9d:
         fb:04:70:5c:43:f7:63:e1:74:3f:c5:7d:36:7f:b2:12:78:76:
         ce:a6:ef:fb:69:a8:84:f8:93:31:88:fc:39:7e:93:a1:1c:bf:
         ef:e7:0f:fe:0e:62:d2:44:bb:2a:45:da:41:c3:4a:35:ed:27:
         80:2e:57:17:6c:88:55:01:46:db:27:aa:6d:bd:36:28:bd:c8:
         54:5a:35:e2:93:ae:34:1a:17:a4:9b:84:33:ef:79:ae:ce:6a:
         2d:e1:c6:90:4b:ae:7d:af:03:e7:de:70:1c:06:42:04:40:d3:
         f1:5f:b0:82:89:3b:ea:f5:b9:66:cd:c1:1f:97:d8:cf:4a:bd:
         41:ce:12:02
-----BEGIN CERTIFICATE-----
MIIEIjCCAwqgAwIBAgIEEAAA1jANBgkqhkiG9w0BAQsFADBEMQswCQYDVQQGEwJE
RTEPMA0GA1UECAwGSGVzc2VuMRQwEgYDVQQKDAtwcml2YWN5aWRlYTEOMAwGA1UE
AwwFQ0EwMDEwHhcNMTgwMTI0MTYzMzA2WhcNMTkwMTI0MTYzMzA2WjBQMQ8wDQYD
VQQLDAZyZWFsbTExEjAQBgNVBAMMCWNvcm5lbGl1czEpMCcGCSqGSIb3DQEJARYa
dXNlckBsb2NhbGhvc3QubG9jYWxkb21haW4wggEiMA0GCSqGSIb3DQEBAQUAA4IB
DwAwggEKAoIBAQC6CY3K/Woa37rwJ5Qj049GyOjKBwe3EErtAZUM5Qh92UotefRE
376g9R0l8AfTIBVQeyV429CwgrRWGj6WW8tu9//KLpzHhFE063vtKs9A1TQImhq7
rz7a1e8OnnB/iYPXYjM1LLG3NNzhMSXzJXslZL1heyIShyb1BccigLVMAWahpQOq
S3n9uiCyfbJN9rvU6xOAE+hCGjpyEAxLXgCQdKwLM9xksgBOJDWt1WPh4rjGRDF7
tYlZ5Y2vKPaFkqI9i26KacElHzCTD+wuAIkr7nQ+d5GhJPBZrQRDXdInWODHs0Ko
GjAjzLVTb1Cvl0oNpSHOw7aAm/swfhKTro3BAgMBAAGjggEOMIIBCjALBgNVHQ8E
BAMCBaAwCQYDVR0TBAIwADARBglghkgBhvhCAQEEBAMCBkAwMwYJYIZIAYb4QgEN
BCYWJE9wZW5TU0wgR2VuZXJhdGVkIFNlcnZlciBDZXJ0aWZpY2F0ZTAdBgNVHQ4E
FgQUJIUlpnY94lk8hp3x1LiS44HwoLwwdAYDVR0jBG0wa4AU9KfAzJFGr2TzkfIn
+Miyb4qHMnOhSKRGMEQxCzAJBgNVBAYTAkRFMQ8wDQYDVQQIDAZIZXNzZW4xFDAS
BgNVBAoMC3ByaXZhY3lpZGVhMQ4wDAYDVQQDDAVDQTAwMYIJAPvI66yDzRIHMBMG
A1UdJQQMMAoGCCsGAQUFBwMBMA0GCSqGSIb3DQEBCwUAA4IBAQC/snd78Wfeeld8
Y6LclKwn94Cxmyby9bEhxNVzIeoM4lqty+Vi77KmpEdEO8RqU3uf50UHj+RXIFxh
zwmIQMDyuN5YLye13gBVMbqDqp7tYoqK5zoVkAy+Mn9KJtHlKO6YnOhpnAv1TjDC
Hy0oGMCeaAXzYkb+EaBhZkRSBJ37BHBcQ/dj4XQ/xX02f7ISeHbOpu/7aaiE+JMx
iPw5fpOhHL/v5w/+DmLSRLsqRdpBw0o17SeALlcXbIhVAUbbJ6ptvTYovchUWjXi
k640Ghekm4Qz73muzmot4caQS659rwPn3nAcBkIEQNPxX7CCiTvq9blmzcEfl9jP
Sr1BzhIC
-----END CERTIFICATE-----
